         U abort
         U accept
         U __aeabi_idiv
         U __aeabi_uidiv
         U _aplog_port_close_orig
         U _aplog_port_open_orig
         U autocallback
         U bind
         U calloc
         U chmod
         U chown
         U close
         U closedir
         U connect
         U __cxa_atexit
         w __cxa_finalize
         U __cxa_pure_virtual
         U dlclose
         U dlerror
         U dlopen
         U dlsym
41abd240 a _DYNAMIC
         U __errno_location
         U execl
         U exit
         U _exit
         U fclose
         U fcntl
         U feof
         U ferror
         U flock
         U fopen
         U fprintf
         U fread
         U free
         U ftok
         U ftruncate
41ac0f08 D FW_DI
41ac0f04 D FW_DI_LIB
41ac0f0c D FW_DYNAMIC_IDLE
41ac0ef8 D FW_NEWSREADER_DATA
41ac0efc D FW_NEWSREADER_DIR
41ac0ef0 D FW_NEWSREADER_DPAGENT
41ac0ef4 D FW_NEWSREADER_LIB
41ac0f00 D FW_PLUGINLIB
         U __fxstat
         U getenv
418ad610 T getFlexBit
         U getFlexBit_setupflex
         U getpid
         U gettimeofday
         w __gmon_start__
         U gmtime
         U ioctl
         w _Jv_RegisterClasses
         U kill
         U libaplog_to_module_ptr
         U __libc_current_sigrtmax
         U __libc_current_sigrtmin
         U listen
         U LM_app_connect
         U LM_app_disconnect
         U LM_sendKeyPress
         U LM_setKeyLockMode
         U LM_setMorphingMode
         U LM_setScreensaverStatus
         U localtime
         U lseek
         U __lxstat
         U malloc
418afa40 T MD5Final
418aec64 T MD5Init
418afad4 T MD5toString
418af984 T MD5Update
         U memcmp
         U memcpy
         U memorymanager
         U memset
         U mkfifo
         U mktime
         U mmap
         U __modsi3
         U msgget
         U msgsnd
         U munmap
         U nanosleep
         U nice
         U objectDict
         U open
         U opendir
         U perror
         U png_create_info_struct
         U png_create_read_struct
         U png_destroy_read_struct
         U png_error
         U png_get_IHDR
         U png_get_io_ptr
         U png_read_info
         U png_set_error_fn
         U png_set_read_fn
         U printf
         U pthread_cancel
         U pthread_cond_signal
         U pthread_cond_wait
         U pthread_create
         U pthread_mutex_lock
         U pthread_mutex_unlock
         U puts
         U qApp
         U qmasterServer
         U qsort
         U qt_fbdpy
         U qt_fontmanager
         U qt_modal_stack
         U qt_screen
         U qt_screencursor
         U qt_temp_bgPercent
         U qwsServer
         U read
         U readdir
         U rename
         U sched_setscheduler
         U select
         U semctl
         U semget
         U semop
         U setegid
         U setenv
         U seteuid
         U setgid
         U _setjmp
         U setregid
         U setreuid
         U setsockopt
         U setuid
         U shmat
         U shmctl
         U shmdt
         U shmget
         U signal
         U socket
         U sprintf
         U statfs
         U stderr
         U stdout
         U strcasecmp
         U strchr
         U strcmp
         U strcpy
         U strerror
         U strlen
         U strncmp
         U strncpy
         U __strtol_internal
         U __strtoll_internal
         U sysinfo
         U time
         U TsFontStyle_delete
         U TsLayout_compose
         U TsLayout_delete
         U TsLayout_getCaretInfo
         U TsLayout_getGlyphInfo
         U TsLayout_getIndexForXY
         U TsLayout_getLineInfo
         U TsLayout_getValidPosition
         U TsLayout_getXYForIndex
         U TsLayout_new
         U TsLayoutOptions_delete
         U TsLayoutOptions_new
         U TsLayoutOptions_set
         U TsMem_free
         U TsText_delete
         U TsText_insertRun
         U TsText_new
         U TsText_setAlignment
         U TsText_setFontStyle
         U TsText_setIndent
         U TsText_setTextDirection
         U TsUnicode_getBidiCharType
         U TsUnicode_isCombiningMark
         U TsUnicode_isWhitespace
         U tzset
         U umask
         U __umodsi3
         U unicode_num_array_id
         U unlink
         U usleep
418de6a4 T UTIL_EncodingAutoDetectBuff
418d3470 T UTIL_GetActiveAccount
418d350c T UTIL_GetActivePin
418d4170 T UTIL_GetAddrLaunchCamera
418d35b8 T UTIL_GetAlarmServerStatus
418d438c T UTIL_GetAMApplicationStatus
418d6edc T UTIL_GetAMSsMsg
418d67a8 T UTIL_GetAppLockSessionStatus
418d37f4 T UTIL_GetBatteryLevel
418d5440 T UTIL_GetBatteryPercent
418d37b8 T UTIL_GetBatteryStatus
418d4a3c T UTIL_GetBlendingColor
418d4b8c T UTIL_GetBlendingCST
418d4c34 T UTIL_GetBlendingGNB
418d4ae4 T UTIL_GetBlendingPercentage
418d4d84 T UTIL_GetBlendingScrollBar
418d4cdc T UTIL_GetBlendingStatusBar
418d66f4 T UTIL_GetBtA2dpStatus
418d3998 T UTIL_GetBtConnCount
418d69d8 T UTIL_GetBtFunLightStatus
418d441c T UTIL_GetBtHandfreeStatus
418d32a0 T UTIL_GetBTHSStatus
418d5c40 T UTIL_GetBtScoReadyForVr
418d395c T UTIL_GetBtStatus
418d6520 T UTIL_GetCallBarringStatus
418d3070 T UTIL_GetCallChargeType
418d5aec T UTIL_GetCallConnectedStatus
418d68ac T UTIL_GetCallDlgPopup
418d5a94 T UTIL_GetCallForwardStatus
418d41ac T UTIL_GetCameraStatus
418d3434 T UTIL_GetCardType
418d6740 T UTIL_GetCarrierKeySettings
418d6350 T UTIL_GetChargeCompletedStatus
418d3210 T UTIL_GetChargeStatus
418d4530 T UTIL_GetCountryId
418d6648 T UTIL_GetCPHSCallForwardStatus
418d4678 T UTIL_GetCphsCspStatus
418d47d4 T UTIL_GetCphsLineLockStatus
418d4820 T UTIL_GetCphsOperatorName
418d461c T UTIL_GetCphsOpnShortformSatus
418d4794 T UTIL_GetCphsSimCardStatus
418d46d8 T UTIL_GetCphsVMStatus
418d5a3c T UTIL_GetCSDCallStatus
418d3ef4 T UTIL_GetCurrentSystemAudioPath
418d495c T UTIL_GetDataCallStaus
418d3eb8 T UTIL_GetDataConnStatus
418d6df8 T UTIL_GetDateFormat
418d3bfc T UTIL_GetDialHyphenation
418d555c T UTIL_GetDisplayTimer
418d4468 T UTIL_GetDlgPriority
418d53bc T UTIL_GetEarpieceSafety
418d5e00 T UTIL_GetEFEMMode
418d42d8 T UTIL_GetEgprsServiceStatus
418d4314 T UTIL_GetEgprsTransStatus
418d400c T UTIL_GetEMUBus_Acc_Status
418d5264 T UTIL_GetEMUDeviceType
418d3628 T UTIL_GetEnteringSubsidyCode
418d38a8 T UTIL_GetFlipStatus
418d429c T UTIL_GetGprsActivatedStatus
418d4260 T UTIL_GetGprsAttachStatus
418d369c T UTIL_GetGprsFeatureStatus
418d4224 T UTIL_GetGprsServiceStatus
418d2f80 T UTIL_GetHeadsetStatus
418d59e4 T UTIL_GetHideState
418d2eb4 T UTIL_GetHKSoundInfo
418d6c90 T UTIL_GetHomeZoneName
418d6bcc T UTIL_GetHomeZoneStatus
418d598c T UTIL_GetIdleFocus
418d3258 T UTIL_GetIncomingCallStatus
418d6e90 T UTIL_GetInComposer
418d4350 T UTIL_GetIrdaBusyStatus
418d3920 T UTIL_GetIsOrientationLandscape
418d6594 T UTIL_GetKeypadLockStatus
418d69fc T UTIL_GetLanguageCode
418d6854 T UTIL_GetLanOpenLayout
418d38e4 T UTIL_GetLensCoverStatus
418d63c4 T UTIL_GetLowBatteryStatus
418d3a64 T UTIL_GetMAType
418d58a8 T UTIL_GetMMCSDInfo
418d5804 T UTIL_GetMMCSDStatus
418d4134 T UTIL_GetMMSLaunchCamera
418d3aa0 T UTIL_GetNetworkId
418d3b50 T UTIL_GetNetworkStatus
418d5e3c T UTIL_GetNotiPopupStatus
418d6438 T UTIL_GetOpeatorLogoStatus
418d3e08 T UTIL_GetOrgSpnName
418d4058 T UTIL_GetPhoneApplicationStatus
418d2fec T UTIL_GetPhoneAudioDeviceStatus
418d3fa0 T UTIL_GetPhoneAudioPath
418d56c4 T UTIL_GetPhoneAutoLockTime
418d41e8 T UTIL_GetPhoneCallIconIndex
418d31b4 T UTIL_GetPhoneInCall
418d3034 T UTIL_GetPhoneLine
418d36d8 T UTIL_GetPhoneLockStatus
418d36fc T UTIL_GetPhoneSystemStatus
418d34d0 T UTIL_GetPinStatus
418d43d4 T UTIL_GetPowerOffStatus
418d5d28 T UTIL_GetPowerOnCliUIStatus
418d5cbc T UTIL_GetPowerOnHandleStatus
418d33a4 T UTIL_GetPowerOnMode
418d5d94 T UTIL_GetPowerOnModuleRunningStatus
418d33f8 T UTIL_GetPowerOnProcess
418d30d0 T UTIL_GetRestrictId
418d310c T UTIL_GetRestrictNextId
418d32e8 T UTIL_GetRFMode
418d39d4 T UTIL_GetRoamStatus
418d54e4 T UTIL_GetScreensaverStatus
418d5610 T UTIL_GetScreensaverTimer
418d3178 T UTIL_GetSecurityKeyLockState
418d3ca8 T UTIL_GetServiceName
418d5b44 T UTIL_GetSideKeyLock
418d3a10 T UTIL_GetSignalQuality
418d67f4 T UTIL_GetSimCardChangedStatus
418d3494 T UTIL_GetSimCardStatus
418d5b9c T UTIL_GetSimLock
418d3780 T UTIL_GetSIMPinBatteryStatus
418d3330 T UTIL_GetSIMPlayTone
418d386c T UTIL_GetSliderStatus
418d3848 T UTIL_GetSpeakerPhoneSetting
418d64ac T UTIL_GetSpnDisplayedStatus
418d3d58 T UTIL_GetSpnName
418d5958 T UTIL_GetSTKSetupMenuStatus
418d3548 T UTIL_GetSubsidyStatus
418d6b10 T UTIL_GetTalkingPhoneStatus
418d2b20 T UTIL_GetThemeInfo
418d6d20 T UTIL_GetTimeFormat
418d5788 T UTIL_GetTimingPhoneLock
418d4fbc T UTIL_GetTotalDataBytes
418d4e2c T UTIL_GetTotalDuration
418d2d0c T UTIL_GetTPSoundInfo
418d49b4 T UTIL_GetTransparency
418d48d0 T UTIL_GetTTYDeviceStatus
418d6f64 T UTIL_GetTZEnv
418d40a0 T UTIL_GetUNSwitchStatus
418d51b8 T UTIL_GetUSBChargingStatus
418d510c T UTIL_GetUSBConnectionStatus
418d5310 T UTIL_GetUSBDeviceType
418d549c T UTIL_GetUsbMassStorage
418d5c14 T UTIL_GetVerifyPin1Status
418d6ab0 T UTIL_GetVRSupporting
418d2bcc T UTIL_GetWidgetSkinnableProp
418d5ff4 T UTIL_GetWifiCampStatus
418d614c T UTIL_GetWifiConnectionInProgress
418d61f8 T UTIL_GetWifiLingertime
418d5f48 T UTIL_GetWifiLinkStatus
418d6910 T UTIL_GetWifiProfileName
418d60a0 T UTIL_GetWifiSignalBar
418d62a4 T UTIL_GetWifiUMALingertime
4185b5c0 T UTILITY_TAPI_Read_AppMsgHeader
418d4500 T UTIL_ResetDlgPriority
418d3458 T UTIL_SetActiveAccount
418d3530 T UTIL_SetActivePin
418d4194 T UTIL_SetAddrLaunchCamera
418d35f8 T UTIL_SetAlarmServerStatus
418d43b0 T UTIL_SetAMApplicationStatus
418d6ebc T UTIL_SetAMSsMsg
418d67d4 T UTIL_SetAppLockSessionStatus
418d3818 T UTIL_SetBatteryLevel
418d5418 T UTIL_SetBatteryPercent
418d37dc T UTIL_SetBatteryStatus
418d49ec T UTIL_SetBlendingColor
418d4b3c T UTIL_SetBlendingCST
418d4be4 T UTIL_SetBlendingGNB
418d4a94 T UTIL_SetBlendingPercentage
418d4d34 T UTIL_SetBlendingScrollBar
418d4c8c T UTIL_SetBlendingStatusBar
418d6720 T UTIL_SetBtA2dpStatus
418d39bc T UTIL_SetBtConnCount
418d69c0 T UTIL_SetBtFunLightStatus
418d4448 T UTIL_SetBtHandfreeStatus
418d32c4 T UTIL_SetBTHSStatus
418d5c6c T UTIL_SetBtScoReadyForVr
418d3980 T UTIL_SetBtStatus
418d6564 T UTIL_SetCallBarringStatus
418d30a4 T UTIL_SetCallChargeType
418d5b18 T UTIL_SetCallConnectedStatus
418d68e8 T UTIL_SetCallDlgPopup
418d5ac0 T UTIL_SetCallForwardStatus
418d41d0 T UTIL_SetCameraStatus
418d341c T UTIL_SetCardType
418d6394 T UTIL_SetChargeCompletedStatus
418d3234 T UTIL_SetChargeStatus
418d456c T UTIL_SetCountryId
418d66a4 T UTIL_SetCPHSCallForwardStatus
418d459c T UTIL_SetCphsInfo
418d4800 T UTIL_SetCphsLineLockStatus
418d4878 T UTIL_SetCphsOperatorName
418d5a68 T UTIL_SetCSDCallStatus
418d3f50 T UTIL_SetCurrentSystemAudioPath
418d493c T UTIL_SetDataCallStatus
418d3edc T UTIL_SetDataConnStatus
418d6d90 T UTIL_SetDateFormat
418d3c58 T UTIL_SetDialHyphenation
418d550c T UTIL_SetDisplayTimer
418d44d0 T UTIL_SetDlgPriority
418d536c T UTIL_SetEarpieceSafety
418d5dd0 T UTIL_SetEFEMMode
418d42fc T UTIL_SetEgprsServiceStatus
418d4338 T UTIL_SetEgprsTransStatus
418d4038 T UTIL_SetEMUBus_Acc_Status
418d5214 T UTIL_SetEMUDeviceType
418d3664 T UTIL_SetEnteringSubsidyCode
418d38cc T UTIL_SetFlipStatus
418d42c0 T UTIL_SetGprsActivatedStatus
418d4284 T UTIL_SetGprsAttachStatus
418d36c0 T UTIL_SetGprsFeatureStatus
418d4248 T UTIL_SetGprsServiceStatus
418d2fbc T UTIL_SetHeadsetStatus
418d5a10 T UTIL_SetHideState
418d2dd8 T UTIL_SetHKSoundInfo
418d6bf8 T UTIL_SetHomeZoneName
418d6bac T UTIL_SetHomeZoneStatus
418d59b8 T UTIL_SetIdleFocus
418d327c T UTIL_SetIncomingCallStatus
418d6e64 T UTIL_SetInComposer
418d4374 T UTIL_SetIrdaBusyStatus
418d3944 T UTIL_SetIsOrientationLandscape
418d65f8 T UTIL_SetKeypadLockStatus
418d6a40 T UTIL_SetLanguageCode
418d688c T UTIL_SetLanOpenLayout
418d3908 T UTIL_SetLensCoverStatus
418d6408 T UTIL_SetLowBatteryStatus
418d3a88 T UTIL_SetMAType
418d5830 T UTIL_SetMMCSDInfo
418d57e4 T UTIL_SetMMCSDStatus
418d4158 T UTIL_SetMMSLaunchCamera
418d3af8 T UTIL_SetNetworkId
418d3bac T UTIL_SetNetworkStatus
418d5e98 T UTIL_SetNotiPopupStatus
418d647c T UTIL_SetOpeatorLogoStatus
418d3e60 T UTIL_SetOrgSpnName
418d407c T UTIL_SetPhoneApplicationStatus
418d3010 T UTIL_SetPhoneAudioDeviceStatus
418d3fdc T UTIL_SetPhoneAudioPath
418d5674 T UTIL_SetPhoneAutoLockTime
418d420c T UTIL_SetPhoneCallIconIndex
418d31e8 T UTIL_SetPhoneInCall
418d3058 T UTIL_SetPhoneLine
418d375c T UTIL_SetPhoneLockStatus
418d34f4 T UTIL_SetPinStatus
418d43f8 T UTIL_SetPowerOffStatus
418d5cf8 T UTIL_SetPowerOnCliUIStatus
418d5c8c T UTIL_SetPowerOnHandleStatus
418d33c8 T UTIL_SetPowerOnMode
418d5d64 T UTIL_SetPowerOnModuleRunningStatus
418d33e0 T UTIL_SetPowerOnProcess
418d30f4 T UTIL_SetRestrictId
418d3130 T UTIL_SetRestrictNextId
418d330c T UTIL_SetRFMode
418d39f8 T UTIL_SetRoamStatus
418d54c4 T UTIL_SetScreensaverStatus
418d55c0 T UTIL_SetScreensaverTimer
418d3148 T UTIL_SetSecurityKeyLockState
418d3d00 T UTIL_SetServiceName
418d5b70 T UTIL_SetSideKeyLock
418d3a34 T UTIL_SetSignalQuality
418d682c T UTIL_SetSimCardChangedStatus
418d34b8 T UTIL_SetSimCardStatus
418d5bc8 T UTIL_SetSimLock
418d336c T UTIL_SetSIMPlayTone
418d3890 T UTIL_SetSliderStatus
418d3830 T UTIL_SetSpeakerPhoneSetting
418d64f0 T UTIL_SetSpnDisplayedStatus
418d3db0 T UTIL_SetSpnName
418d5930 T UTIL_SetSTKSetupMenuStatus
418d3588 T UTIL_SetSubsidyStatus
418d6b64 T UTIL_SetTalkingPhoneStatus
418d2b78 T UTIL_SetThemeInfo
418d6cc0 T UTIL_SetTimeFormat
418d5728 T UTIL_SetTimingPhoneLock
418d4e84 T UTIL_SetTotalDataBytes
418d4ddc T UTIL_SetTotalDuration
418d2c30 T UTIL_SetTPSoundInfo
418d4984 T UTIL_SetTransparency
418d490c T UTIL_SetTTYDeviceStatus
418d6f04 T UTIL_SetTZEnv
418d40c4 T UTIL_SetUNSwitchStatus
418d5168 T UTIL_SetUSBChargingStatus
418d50bc T UTIL_SetUSBConnectionStatus
418d52c0 T UTIL_SetUSBDeviceType
418d547c T UTIL_SetUsbMassStorage
418d5bf4 T UTIL_SetVerifyPin1Status
418d6ae4 T UTIL_SetVRSupporting
418d2c00 T UTIL_SetWidgetSkinnableProp
418d6050 T UTIL_SetWifiCampStatus
418d61a8 T UTIL_SetWifiConnectionInProgress
418d6254 T UTIL_SetWifiLingertime
418d5fa4 T UTIL_SetWifiLinkStatus
418d6968 T UTIL_SetWifiProfileName
418d60fc T UTIL_SetWifiSignalBar
418d6300 T UTIL_SetWifiUMALingertime
00000000 A VERSION
         U vfork
         U vfprintf
         U write
418d0f18 T _Z10UTIL_WriteiPvi
         U _Z11qFadeEffectP7QWidgeti
418f228c T _Z11UNS_AddItemiiiRK7QStringS1_RK8QCStringRK6QArrayIcERK5QUuidjb
         U _Z12QStringToRunRK7QStringi
418c8674 T _Z12UTIL_Get_LumRi
418612e4 T _Z13colorToString6QColor
         U _Z13qScrollEffectP7QWidgetji
418dfdb8 T _Z13setLanguageIdi
418617b0 T _Z13stringToColor7QString
4191942c T _Z14findlangInListRKN13UTIL_Language10LanguageIdERK11QStringList
418f2164 T _Z14UNS_RemoveItemiii
         U _Z15qAddPostRoutinePFvvE
418e69a0 T _Z16getWindowByWinIdi
418d0bfc T _Z17StartupKeyCommandv
         U _Z18alterNumberUnicodeR7QString
         U _Z18getTsLayoutControlv
418c4eec T _Z18SetGuiToSuspensionv
418d10e8 T _Z18Socket_ReadCommandi
         U _Z19qt_backgroundOffsetPK7QWidget
418d1070 T _Z19Socket_WriteCommandiP16UTIL_CommandBody
418cfa60 T _Z19TerminateKeyCommandv
418c277c T _Z20UTIL_BroadcastKeyMsgii
418c8818 T _Z20UTIL_initLightSensorv
418d1a00 T _Z20UTIL_InitSystemTablev
41a0b4d4 T _Z21getHeaderStyleManagerv
         U _Z21QFont_TsFontStyle_newPK5QFont
418d0f80 T _Z21Socket_WaitDataComingii
418dfe30 T _Z22DisableAMClosedRestartv
418649f4 T _Z22UTIL_setWidgetPriorityP7QWidgeti
41864a60 T _Z22UTIL_setWindowDeactiveP7QWidget
418c8af0 T _Z23UTIL_cleanupLightSensorv
418c2758 T _Z23UTIL_GetKeyEventChannelv
418d25f4 T _Z23UTIL_ReleaseSystemTablev
4185ae3c T _Z24installTestCaptureDriverv
418c26ec T _Z24UTIL_GetKeyBypassChannelv
418c2710 T _Z24UTIL_GetKeyLockedMessagev
418c9558 T _Z24UTIL_Light_Detect_ThreadPv
         U _Z26qt_set_paintevent_clippingP12QPaintDeviceRK7QRegion
4185abc0 T _Z26uninstallTestCaptureDriverv
418d4738 T _Z26UTIL_GetCphsInfoNumsStatusv
418c26dc T _Z26UTIL_GetKeyFirstRepeatTimev
418c2734 T _Z26UTIL_GetKeyUnlockedMessagev
418c26d0 T _Z27UTIL_GetKeyPressAndHoldTimev
418d29cc T _Z27UTIL_GetPowerOnTableAddressv
         U _Z28qt_clear_paintevent_clippingv
418f244c T _Z28UNS_SetBrandedIMPromptForCLIRK4QMapI14MISSED_EVENT_T7QStringE
418d1900 T _Z28UTIL_CreateSystemStatusTablev
418c26e4 T _Z28UTIL_GetTimeBetweenKeyRepeatv
418d2858 T _Z29UTIL_CreatePowerOnStatusTablev
418d2978 T _Z30UTIL_ReleasePowerOnStatusTablev
418d27e4 T _Z38UTIL_GetApplicationManagerTableAddressv
418d2670 T _Z40UTIL_CreateApplicationManagerStatusTablev
418d2790 T _Z41UTIL_ReleaseApplicationManagerStatusTablev
418cd2b8 T _Z5readniPvi
         U _Z6bitBltP12QPaintDeviceiiPKS_iiiiN2Qt8RasterOpEb
418cd324 T _Z6writeniPKvi
         U _Z8blendBltP12QPaintDeviceiiPKS_iiiS2_iiiiib
         U _Z9blendFillP12QPaintDeviceiiiiPKS_iiiRK6QColorib
         U _Z9blendFillP12QPaintDeviceRK5QRectPKS_RK6QPointiRK6QColorib
418d7a24 T _Z9doOverlapR7QPixmapiiS0_iiii
418d7bf0 T _Z9doOverlapR7QPixmapS0_
418d0e9c T _Z9UTIL_ReadiPvi
418e1cf8 T _ZdaPv
418e1d8c T _ZdaPvj
418e1cfc T _ZdlPv
418e1d88 T _ZdlPvj
         U _ZeqPKcRK7QString
         U _ZeqRK5QRectS1_
         U _ZeqRK7QStringPKc
         U _ZeqRK7QStringS1_
4185bd4c T _ZlsR11QDataStreamR8TimeInfo
         U _ZlsR11QDataStreamRK11QStringList
4192b618 T _ZlsR11QDataStreamRK11ZKB_Context
4193ba6c T _ZlsR11QDataStreamRK13AM_ActionData
418f20e4 T _ZlsR11QDataStreamRK14MISSED_EVENT_T
4192b54c T _ZlsR11QDataStreamRK15ZKB_ShiftMode_T
418f2110 T _ZlsR11QDataStreamRK17MISSED_EVENT_ITEM
4192b408 T _ZlsR11QDataStreamRK17ZKB_KPC_Request_T
4192b498 T _ZlsR11QDataStreamRK18ZKB_Entry_Method_T
4192b590 T _ZlsR11QDataStreamRK21ZKB_Predict_Request_T
         U _ZlsR11QDataStreamRK5QUuid
         U _ZlsR11QDataStreamRK6QArrayIcE
         U _ZlsR11QDataStreamRK7QString
         U _ZlsR11QDataStreamRK8QCString
         U _ZlsR11QDataStreamRK9QDateTime
4192b5e0 T _ZlsR11QDataStreamRK9ZKB_Field
4192b4b0 T _ZlsR11QDataStreamRKb
4192b420 T _ZlsR11QDataStreamRKN13UTIL_Language10LanguageIdE
         U _ZltRK7QStringS1_
         U _ZN10QBoxLayout12insertWidgetEiP7QWidgetii
         U _ZN10QBoxLayout9addWidgetEP7QWidgetii
         U _ZN10QClipboard7setTextERK7QString
         U _ZN10QFocusData4homeEv
         U _ZN10QPopupMenu4execERK6QPointi
         U _ZN10QPopupMenuC1EP7QWidgetPKc
         U _ZN10QScrollBar11setLineStepEi
         U _ZN10QScrollBar11setPageStepEi
         U _ZN10QScrollBar8setValueEi
         U _ZN10QScrollBarC1EN2Qt11OrientationEP7QWidgetPKc
         U _ZN10QScrollBarC1EP7QWidgetPKc
4193a16c W _ZN10QValueListI11InputMethodEixEj
4187784c W _ZN10QValueListI7QStringEixEj
         U _ZN10QWallpaper15dialogWallpaperEv
         U _ZN10QWallpaper9wallpaperEv
         U _ZN10QWSDisplay12requestFocusEib
         U _ZN10QWSDisplay17setRegionPriorityEii
         U _ZN10QWSDisplay19waitForQCopResponseEv
418d7d6c T _ZN10UTIL_Graph11scalePixmapEPhiiiS0_iiii
418d7ff4 T _ZN10UTIL_Graph14overlapPixmapsE10QValueListI7QPixmapE
418d78ec T _ZN10UTIL_Graph20createDisabledPixmapERK7QPixmap
418d75f4 T _ZN10UTIL_Graph23drawNegativeColorPixmapERK7QPixmap
41a56854 T _ZN10ZDlgHelper19getDefaultDlgIconIdENS_16DlgDefaultIconIDE
41a09ac4 T _ZN10ZHeaderCLI10getSpacingEv
41a09ea0 T _ZN10ZHeaderCLI12getSpacingH2Ev
41a09ebc T _ZN10ZHeaderCLI12getSpacingH3Ev
41a0a090 T _ZN10ZHeaderCLI12getTimeWidthEv
41a0a160 T _ZN10ZHeaderCLI15getWidgetHeightEv
41a098c8 T _ZN10ZHeaderIDL15getWidgetHeightEv
418c28b0 T _ZN10ZKeyObject10setWatcherEP7QWidget
418c3240 T _ZN10ZKeyObjectC1EP7QWidgetP7QObjectPKc
418c32a8 T _ZN10ZKeyObjectC2EP7QWidgetP7QObjectPKc
41a5b6c4 T _ZN10ZNoticeDlg10initializeENS_4TypeE
41a5bde8 T _ZN10ZNoticeDlg10setPaletteERK8QPalette
41a5c0ec T _ZN10ZNoticeDlg11informationERK7QStringS2_S2_S2_PK7QObjectPc
41a96f08 T _ZN10ZNoticeDlg12dlgDismissedEv
41a5c018 T _ZN10ZNoticeDlg13keyPressEventEP9QKeyEvent
41a96e7c T _ZN10ZNoticeDlg14initMetaObjectEv
41a5b924 T _ZN10ZNoticeDlg14setMessageTextERK7QString
41a96d0c T _ZN10ZNoticeDlg16staticMetaObjectEv
41a5be68 T _ZN10ZNoticeDlg18setAutoDismissTimeEi
41a5c1c8 T _ZN10ZNoticeDlg18slotResizeAllChildEi
41a96c68 T _ZN10ZNoticeDlg2trEPKc
41a96cbc T _ZN10ZNoticeDlg2trEPKcS1_
41a5c1dc T _ZN10ZNoticeDlg9showEventEP10QShowEvent
41a5bab0 T _ZN10ZNoticeDlgC1ENS_4TypeEjRK7QStringS3_P7QWidgetPKcbj
41a5bc38 T _ZN10ZNoticeDlgC1ENS_4TypeERK7QStringS3_P7QWidgetPKcbjb
41a5bb74 T _ZN10ZNoticeDlgC2ENS_4TypeEjRK7QStringS3_P7QWidgetPKcbj
41a5bd10 T _ZN10ZNoticeDlgC2ENS_4TypeERK7QStringS3_P7QWidgetPKcbjb
41a5b66c T _ZN10ZNoticeDlgD0Ev
41a5b61c T _ZN10ZNoticeDlgD1Ev
41a5b5cc T _ZN10ZNoticeDlgD2Ev
419b6ef4 T _ZN10ZNumModule11setMaxValueEi
419b6f00 T _ZN10ZNumModule11setMinValueEi
419b6f70 T _ZN10ZNumModule8getValueEv
419b6af0 T _ZN10ZNumModule8setLabelEP6ZLabelNS_17RelativeAlignmentE
419b6f0c T _ZN10ZNumModule8setValueEi
419b6ae4 T _ZN10ZNumModule9getPickerEv
419b6758 T _ZN10ZNumModuleC1EiP7QWidgetPKcjN12ZSkinService11WidgetClsIDE
419b6630 T _ZN10ZNumModuleC2EiP7QWidgetPKcjN12ZSkinService11WidgetClsIDE
419b64b8 T _ZN10ZNumPicker17getSelectedPixmapEv
419b618c T _ZN10ZNumPicker17getStandardPixmapEv
419b60b8 T _ZN10ZNumPicker21getHighSelectedPixmapEv
419b604c T _ZN10ZNumPicker23getUpHighSelectedPixmapEv
419b5fe0 T _ZN10ZNumPicker25getDownHighSelectedPixmapEv
419b5a9c T _ZN10ZNumPicker8getValueEv
418f047c T _ZN10ZResReader10getFirstIDEv
418f0494 T _ZN10ZResReader9getNextIDEv
419a34f4 T _ZN10ZSeparator13setAutoResizeEb
419a28fc T _ZN10ZSeparator14getCurrentFontER5QFontR6QColor
419a066c T _ZN10ZSeparator14setOrientationEN2Qt11OrientationE
419a27d8 T _ZN10ZSeparator8getLabelEv
419a2b4c T _ZN10ZSeparator8setLabelEP6ZLabel
419a2980 T _ZN10ZSeparator8setLabelEP6ZLabel5QRectbb
419a32d4 T _ZN10ZSeparatorC1EP7QWidgetPKcjN12ZSkinService11WidgetClsIDE
419a2ed4 T _ZN10ZSeparatorC1ERK7QPixmapS2_bbP7QWidgetPKcjN12ZSkinService11WidgetClsIDE
419a33e4 T _ZN10ZSeparatorC2EP7QWidgetPKcjN12ZSkinService11WidgetClsIDE
419a30d4 T _ZN10ZSeparatorC2ERK7QPixmapS2_bbP7QWidgetPKcjN12ZSkinService11WidgetClsIDE
419cf298 T _ZN10ZSplitPane10paintEventEP11QPaintEvent
419cf2f8 T _ZN10ZSplitPane10setPaletteERK8QPalette
419cf340 T _ZN10ZSplitPane10updateSkinEb
419cf21c T _ZN10ZSplitPane11resizeEventEP12QResizeEvent
419cf180 T _ZN10ZSplitPane18setPaneHeightPixelEiNS_4TypeE
419ce834 T _ZN10ZSplitPane7getPaneEi
419cf154 T _ZN10ZSplitPane7setPaneEP7QWidgetS1_
419cecec T _ZN10ZSplitPane9setHeightEi
419cf1bc T _ZN10ZSplitPane9setPixmapERK7QPixmap
419cf45c T _ZN10ZSplitPaneC1EP7QWidgetPKcjN12ZSkinService11WidgetClsIDE
419cf544 T _ZN10ZSplitPaneC2EP7QWidgetPKcjN12ZSkinService11WidgetClsIDE
419ce7ac T _ZN10ZSplitPaneD0Ev
419ce730 T _ZN10ZSplitPaneD1Ev
419ce6b4 T _ZN10ZSplitPaneD2Ev
4190f954 T _ZN10ZTableView10cellHeightEi
41913408 T _ZN10ZTableView10setNumColsEi
419134c4 T _ZN10ZTableView10setNumRowsEib
4190f8b4 T _ZN10ZTableView10setTopCellEi
4190f8f8 T _ZN10ZTableView10setXOffsetEi
4190f920 T _ZN10ZTableView10setYOffsetEi
4190f960 T _ZN10ZTableView10totalWidthEv
4190f8d8 T _ZN10ZTableView11setLeftCellEi
4190f9c8 T _ZN10ZTableView11totalHeightEv
41912c9c T _ZN10ZTableView12setCellWidthEi
4190fcf4 T _ZN10ZTableView12setupPainterEP8QPainter
41912c0c T _ZN10ZTableView13setCellHeightEi
41912a04 T _ZN10ZTableView13setTableFlagsEj
41910930 T _ZN10ZTableView14setTopLeftCellEii
4191318c T _ZN10ZTableView15setHorScrollBarEbb
41912fec T _ZN10ZTableView15setVerScrollBarEbb
4190f5b8 T _ZN10ZTableView18setBackgroundColorERK6QColor
4190f944 T _ZN10ZTableView9cellWidthEi
4190fd14 T _ZN10ZTableView9paintCellEP8QPainterii
4190fcf8 T _ZN10ZTableView9paintCellEP8QPainteriiii
41912d2c T _ZN10ZTableView9setOffsetEiib
41880de4 T _ZN11AM_MimeType13getAppByExtExERK7QString
4188024c T _ZN11AM_MimeType14getMimeIdByExtERK7QString
4187df1c T _ZN11AM_MimeType17getMimeTypeDataExERK7QString
41880180 T _ZN11AM_MimeType18getExtListByMimeIdERK7QString
4187e23c T _ZN11AM_MimeType25getMediaPlayerMimeTypesExEv
4187e79c T _ZN11AM_MimeType26getAllSupportedMimeTypesExEv
4187c3ac T _ZN11AM_MimeType8instanceEv
         U _ZN11QCollection7newItemEPv
         U _ZN11QColorGroup8setColorENS_9ColorRoleERK6QColor
         U _ZN11QColorGroupaSERKS_
         U _ZN11QColorGroupC1ERKS_
         U _ZN11QColorGroupC1Ev
         U _ZN11QColorGroupD1Ev
         U _ZN11QCopChannel11sendClientsERK8QCStringS2_RK6QArrayIcEb
         U _ZN11QCopChannel11sendLocallyERK8QCStringS2_RK6QArrayIcE
         U _ZN11QCopChannel12isRegisteredERK8QCString
         U _ZN11QCopChannel16staticMetaObjectEv
         U _ZN11QCopChannel4sendERK8QCStringS2_
         U _ZN11QCopChannel4sendERK8QCStringS2_RK6QArrayIcE
         U _ZN11QCopChannelC1ERK8QCStringP7QObjectPKc
         U _ZN11QCopChannelC2ERK8QCStringP7QObjectPKc
         U _ZN11QCopChannelD2Ev
         U _ZN11QDataStream12readRawBytesEPcj
         U _ZN11QDataStream12setByteOrderEi
         U _ZN11QDataStreamC1E6QArrayIcEi
         U _ZN11QDataStreamC1EP9QIODevice
         U _ZN11QDataStreamC2EP9QIODevice
         U _ZN11QDataStreamD1Ev
         U _ZN11QDataStreamD2Ev
         U _ZN11QDataStreamlsEa
         U _ZN11QDataStreamlsEi
         U _ZN11QDataStreamrsERa
         U _ZN11QDataStreamrsERi
         U _ZN11QDataStreamrsERs
         U _ZN11QFocusEvent6reasonEv
41925ea4 W _ZN11QMapPrivateIP7QObjectP11ZInputFieldE4copyEP8QMapNodeIS1_S3_E
41925e4c W _ZN11QMapPrivateIP7QObjectP11ZInputFieldE5clearEP8QMapNodeIS1_S3_E
         U _ZN11QMetaObject12new_metadataEi
         U _ZN11QMetaObject14new_metaaccessEi
         U _ZN11QMetaObject14new_metaobjectEPKcS1_P9QMetaDataiS3_iP10QClassInfoi
         U _ZN11QMetaObject15set_slot_accessEPN9QMetaData6AccessE
         U _ZN11QMouseEventC1EN6QEvent4TypeERK6QPointii
         U _ZN11QPointArray7makeArcEiiiiii
         U _ZN11QPointArray8setPointEjii
         U _ZN11QPointArray9translateEii
         U _ZN11QPointArrayC1ERK5QRectb
         U _ZN11QScrollView10setEnabledEb
         U _ZN11QScrollView10setMarginsEiiii
         U _ZN11QScrollView10wheelEventEP11QWheelEvent
         U _ZN11QScrollView11eventFilterEP7QObjectP6QEvent
         U _ZN11QScrollView11removeChildEP7QObject
         U _ZN11QScrollView11resizeEventEP12QResizeEvent
         U _ZN11QScrollView11styleChangeER6QStyle
         U _ZN11QScrollView12drawContentsEP8QPainter
         U _ZN11QScrollView12frameChangedEv
         U _ZN11QScrollView14resizeContentsEii
         U _ZN11QScrollView14setContentsPosEii
         U _ZN11QScrollView15setCornerWidgetEP7QWidget
         U _ZN11QScrollView15setHBarGeometryER10QScrollBariiii
         U _ZN11QScrollView15setResizePolicyENS_12ResizePolicyE
         U _ZN11QScrollView15setVBarGeometryER10QScrollBariiii
         U _ZN11QScrollView16staticMetaObjectEv
         U _ZN11QScrollView17setHScrollBarModeENS_13ScrollBarModeE
         U _ZN11QScrollView17setVScrollBarModeENS_13ScrollBarModeE
         U _ZN11QScrollView18contentsToViewportERK6QPoint
         U _ZN11QScrollView18contentsWheelEventEP11QWheelEvent
         U _ZN11QScrollView18drawContentsOffsetEP8QPainteriiiiii
         U _ZN11QScrollView18focusNextPrevChildEb
         U _ZN11QScrollView18viewportPaintEventEP11QPaintEvent
         U _ZN11QScrollView18viewportWheelEventEP11QWheelEvent
         U _ZN11QScrollView19viewportResizeEventEP12QResizeEvent
         U _ZN11QScrollView22contentsMouseMoveEventEP11QMouseEvent
         U _ZN11QScrollView22viewportMouseMoveEventEP11QMouseEvent
         U _ZN11QScrollView23contentsMousePressEventEP11QMouseEvent
         U _ZN11QScrollView23viewportMousePressEventEP11QMouseEvent
         U _ZN11QScrollView25contentsMouseReleaseEventEP11QMouseEvent
         U _ZN11QScrollView25viewportMouseReleaseEventEP11QMouseEvent
         U _ZN11QScrollView29contentsMouseDoubleClickEventEP11QMouseEvent
         U _ZN11QScrollView29viewportMouseDoubleClickEventEP11QMouseEvent
         U _ZN11QScrollView4showEv
         U _ZN11QScrollView6resizeEii
         U _ZN11QScrollView8addChildEP7QWidgetii
         U _ZN11QScrollView9moveChildEP7QWidgetii
         U _ZN11QScrollViewC2EP7QWidgetPKcj
         U _ZN11QScrollViewD2Ev
         U _ZN11QStringData10deleteSelfEv
         U _ZN11QStringList5splitERK5QCharRK7QStringb
         U _ZN11QStringList5splitERK7QRegExpRK7QStringb
         U _ZN11QStringList5splitERK7QStringS2_b
         U _ZN11QTextStream11setEncodingENS_8EncodingE
         U _ZN11QTextStream4readEv
         U _ZN11QTextStream8readLineEv
         U _ZN11QTextStreamC1EP9QIODevice
         U _ZN11QTextStreamC2EP7QStringi
         U _ZN11QTextStreamD1Ev
         U _ZN11QTextStreamD2Ev
         U _ZN11QTextStreamlsEc
         U _ZN11QTextStreamlsEi
         U _ZN11QTextStreamlsEPKc
         U _ZN11QTextStreamlsERK7QString
         U _ZN11QTranslator4loadERK7QStringS2_S2_S2_
         U _ZN11QTranslatorC1EP7QObjectPKc
         U _ZN11QVBoxLayoutC1EP7QWidgetiiPKc
418b2e60 T _ZN11SETUP_THEME10isRingToneERK7QString
41ad232c B _ZN11SETUP_THEME11noneSettingE
418b2c94 T _ZN11SETUP_THEME11updateThemeENS_13THEME_ELEMENTERK7QString
418ba474 T _ZN11SETUP_THEME12ThemeManager10g_activateEi
418b9498 T _ZN11SETUP_THEME12ThemeManager10g_getThemeEi
418bdbd8 T _ZN11SETUP_THEME12ThemeManager10g_instanceEv
418b9444 T _ZN11SETUP_THEME12ThemeManager10g_isLockedEPNS_5ThemeE
418bc1c0 T _ZN11SETUP_THEME12ThemeManager11g_nameCheckEPNS_5ThemeERK7QString
418bbfb0 T _ZN11SETUP_THEME12ThemeManager11g_saveThemeEPNS_5ThemeEb
418bb178 T _ZN11SETUP_THEME12ThemeManager13g_deleteThemeEib
418ba590 T _ZN11SETUP_THEME12ThemeManager13g_updateThemeEPNS_5ThemeEb
418bc70c T _ZN11SETUP_THEME12ThemeManager15g_createNewCopyEi
418b9490 T _ZN11SETUP_THEME12ThemeManager16g_getThemesCountEv
418bac94 T _ZN11SETUP_THEME12ThemeManager18g_containUsedFilesEPNS_5ThemeE
418bac8c T _ZN11SETUP_THEME12ThemeManager18g_getActivePointerEv
418bac84 T _ZN11SETUP_THEME12ThemeManager19g_getDefaultPointerEv
418bc62c T _ZN11SETUP_THEME12ThemeManager20g_createEditableCopyEi
418bb5b4 T _ZN11SETUP_THEME12ThemeManager7g_resetEi
418ba46c T _ZN11SETUP_THEME12ThemeManager9g_restoreEv
418b2bac T _ZN11SETUP_THEME13getThemeValueENS_13THEME_ELEMENTE
418b44b8 T _ZN11SETUP_THEME14getActiveThemeEv
418b8250 T _ZN11SETUP_THEME14ThemeOperation10getCfgFileEPNS_5ThemeE
418b82b8 T _ZN11SETUP_THEME14ThemeOperation12getThemeSizeEPKNS_5ThemeE
418b2ffc T _ZN11SETUP_THEME15isWallpaperFileERK7QString
418b4e74 T _ZN11SETUP_THEME16getCustomizedDirEv
418b4a9c T _ZN11SETUP_THEME16getThemeFlexBitsEv
418bfac8 T _ZN11SETUP_THEME16ThemeFileManager15unRegThemeFilesEPNS_5ThemeEbb
418c2484 T _ZN11SETUP_THEME16ThemeFileManager8instanceEv
418b6f68 T _ZN11SETUP_THEME17ThemeMediaChecker10isRingtoneEv
418b57f0 T _ZN11SETUP_THEME17ThemeMediaChecker16getEffectiveFileEv
418b7140 T _ZN11SETUP_THEME17ThemeMediaChecker17getImageExtensionEv
418b7a10 T _ZN11SETUP_THEME17ThemeMediaChecker9isPictureEv
418b61f4 T _ZN11SETUP_THEME17ThemeMediaCheckerC1E7QStringNS_13THEME_ELEMENTE
418b62e4 T _ZN11SETUP_THEME17ThemeMediaCheckerC2E7QStringNS_13THEME_ELEMENTE
418b55f0 T _ZN11SETUP_THEME17ThemeMediaCheckerD0Ev
418b56a0 T _ZN11SETUP_THEME17ThemeMediaCheckerD1Ev
418b5748 T _ZN11SETUP_THEME17ThemeMediaCheckerD2Ev
418b38f0 T _ZN11SETUP_THEME5Theme12getThemeTypeEv
418b39a0 T _ZN11SETUP_THEME5Theme8isActiveEv
418b38f8 T _ZN11SETUP_THEME5Theme8setValueEiRK7QString
41ad2330 B _ZN11SETUP_THEME8ErrorNumE
418afc18 T _ZN11UTIL_Region11getRegionIdEv
418afc40 T _ZN11UTIL_Region16getSiteShortNameENS_6SiteIdE
418afb1c T _ZN11UTIL_Region9getSiteIdEv
41aa09a8 R _ZN11UTIL_Region9siteTableE
41a4002c T _ZN11ZBaseButton10paintEventEP11QPaintEvent
41a40294 T _ZN11ZBaseButton13enabledChangeEb
41a3f8bc T _ZN11ZBaseButton13setAutoRepeatEb
41a3f864 T _ZN11ZBaseButton13setAutoResizeEb
41a4032c T _ZN11ZBaseButton13setToggleTypeENS_10ToggleTypeE
41a3ff24 T _ZN11ZBaseButton14mouseMoveEventEP11QMouseEvent
41a3fe3c T _ZN11ZBaseButton15mousePressEventEP11QMouseEvent
41a405b8 T _ZN11ZBaseButton17mouseReleaseEventEP11QMouseEvent
41a3fe28 T _ZN11ZBaseButton18focusNextPrevChildEb
41a3f9bc T _ZN11ZBaseButton7setDownEb
41a3f79c T _ZN11ZBaseButton8setAccelEi
41a3efe0 T _ZN11ZBaseButton8setGroupEP16ZBaseButtonGroup
41a3fa5c T _ZN11ZBaseButton8setStateENS_11ToggleStateE
419559c4 T _ZN11ZCanvasItem10setEnabledEb
41955918 T _ZN11ZCanvasItem10setVisibleEb
4195bfd4 T _ZN11ZCanvasItem11addToChunksEv
41955724 T _ZN11ZCanvasItem11setAnimatedEb
4195597c T _ZN11ZCanvasItem11setSelectedEb
41955794 T _ZN11ZCanvasItem11setVelocityEdd
419587a0 T _ZN11ZCanvasItem12changeChunksEv
4195b884 T _ZN11ZCanvasItem16removeFromChunksEv
419541a8 T _ZN11ZCanvasItem4moveEdd
41954b64 T _ZN11ZCanvasItem4showEv
419556a8 T _ZN11ZCanvasItem6moveByEdd
41955820 T _ZN11ZCanvasItem7advanceEi
41955a0c T _ZN11ZCanvasItem9setActiveEb
4195586c T _ZN11ZCanvasItem9setCanvasEP7ZCanvas
4195f4f0 T _ZN11ZCanvasView12drawContentsEP8QPainteriiii
41a7e60c T _ZN11ZCanvasView16staticMetaObjectEv
4195f1a4 T _ZN11ZCanvasView9setCanvasEP7ZCanvas
4195f33c T _ZN11ZCanvasViewC1EP7ZCanvasP7QWidgetPKcj
4195f3c4 T _ZN11ZCanvasViewC2EP7ZCanvasP7QWidgetPKcj
4195f244 T _ZN11ZCanvasViewD0Ev
4195f29c T _ZN11ZCanvasViewD1Ev
4195f2ec T _ZN11ZCanvasViewD2Ev
419b1520 T _ZN11ZDateModule10setEndDateE5QDate
419b1460 T _ZN11ZDateModule12setDateValueE5QDate
419b14c0 T _ZN11ZDateModule12setStartDateE5QDate
419b0f80 T _ZN11ZDateModule7getDateEv
419b0f74 T _ZN11ZDateModule9getPickerEv
419b0ab4 T _ZN11ZDateModuleC1E5QDateS0_S0_P7QWidgetPKcjN12ZSkinService11WidgetClsIDE
419b08fc T _ZN11ZDateModuleC1EP7QWidgetPKcjN12ZSkinService11WidgetClsIDE
419b0be4 T _ZN11ZDateModuleC2E5QDateS0_S0_P7QWidgetPKcjN12ZSkinService11WidgetClsIDE
419b09d8 T _ZN11ZDateModuleC2EP7QWidgetPKcjN12ZSkinService11WidgetClsIDE
419ae7dc T _ZN11ZDatePicker10getDayNameEv
419adf10 T _ZN11ZDatePicker12setDateValueE5QDate
419ad894 T _ZN11ZDatePicker17getSelectedPixmapEv
419ad754 T _ZN11ZDatePicker17getStandardPixmapEv
419ad7f4 T _ZN11ZDatePicker21getHighSelectedPixmapEv
419ad934 T _ZN11ZDatePicker23getUpHighSelectedPixmapEv
419ad9a0 T _ZN11ZDatePicker25getDownHighSelectedPixmapEv
419ada28 T _ZN11ZDatePicker7getDateEv
419b0578 T _ZN11ZDatePickerC1E5QDateS0_S0_P7QWidgetPKcjN12ZSkinService11WidgetClsIDE
419b0420 T _ZN11ZDatePickerC1EP7QWidgetPKcjN12ZSkinService11WidgetClsIDE
419b0654 T _ZN11ZDatePickerC2E5QDateS0_S0_P7QWidgetPKcjN12ZSkinService11WidgetClsIDE
419b04cc T _ZN11ZDatePickerC2EP7QWidgetPKcjN12ZSkinService11WidgetClsIDE
41979c04 T _ZN11ZDetailItem11clearAllRowEv
41979bec T _ZN11ZDetailItem15getReservedDataEv
41979bf8 T _ZN11ZDetailItem15setReservedDataEj
41979b64 T _ZN11ZDetailItem16enableTitleParseEb
4197bd74 T _ZN11ZDetailItem17appendTextIconRowE7QString
4197bc0c T _ZN11ZDetailItem17appendTextIconRowE7QStringR7QPixmapb
4197bcb4 T _ZN11ZDetailItem17appendTextIconRowER7QPixmap
41979b38 T _ZN11ZDetailItem24enableStructureDataParseEb
4197d054 T _ZN11ZDetailItem5paintER8QPainter
4197d4d8 T _ZN11ZDetailItem6heightEPK11ZDetailView
4197a518 T _ZN11ZDetailItemC1E7QStringP7QPixmapP11ZDetailView
4197a0f8 T _ZN11ZDetailItemC1ENS_8ItemTypeE7QString5QCharP11ZDetailView
4197a744 T _ZN11ZDetailItemC2E7QStringP7QPixmapP11ZDetailView
4197a308 T _ZN11ZDetailItemC2ENS_8ItemTypeE7QString5QCharP11ZDetailView
41979c34 T _ZN11ZDetailItemD0Ev
41979dd0 T _ZN11ZDetailItemD1Ev
41979f64 T _ZN11ZDetailItemD2Ev
419782f4 T _ZN11ZDetailView10removeItemEP11ZDetailItem
419778c0 T _ZN11ZDetailView10setPaletteERK8QPalette
41977580 T _ZN11ZDetailView10updateSkinEb
41978220 T _ZN11ZDetailView11insertIntemEP11ZDetailItemS1_
419757a4 T _ZN11ZDetailView11resizeEventEP12QResizeEvent
41975fe0 T _ZN11ZDetailView12focusInEventEP11QFocusEvent
41975530 T _ZN11ZDetailView13focusOutEventEP11QFocusEvent
41976030 T _ZN11ZDetailView13keyPressEventEP9QKeyEvent
41975780 T _ZN11ZDetailView13setWrapPolicyEN9ZWrapLine10WrapPolicyE
41974ac0 T _ZN11ZDetailView13triggerUpdateEb
41976c2c T _ZN11ZDetailView14resetFocusItemEb
41976b58 T _ZN11ZDetailView16getStructureDataEiR7QStringS1_S1_
41a81ed4 T _ZN11ZDetailView16staticMetaObjectEv
4197506c T _ZN11ZDetailView18viewportPaintEventEP11QPaintEvent
4197588c T _ZN11ZDetailView22setStructureDataParserEP20ZStructureDataParser
419781d4 T _ZN11ZDetailView7addItemEP11ZDetailItem
41975548 T _ZN11ZDetailView9showEventEP10QShowEvent
41977d9c T _ZN11ZDetailViewC1EP7QWidgetjN12ZSkinService11WidgetClsIDE
41977fb8 T _ZN11ZDetailViewC2EP7QWidgetjN12ZSkinService11WidgetClsIDE
419778fc T _ZN11ZDetailViewD0Ev
41977a8c T _ZN11ZDetailViewD1Ev
41977c14 T _ZN11ZDetailViewD2Ev
41a11af4 T _ZN11ZFsbaPixmap13getFsbaPixmapEi
41917208 T _ZN11ZInputField10setOptionsEil
41916c80 T _ZN11ZInputField10setReverseE6QPointib
41916cd8 T _ZN11ZInputField11insertImageE6QPoint7QString
41916ea4 T _ZN11ZInputField11isReFocusedEv
41916174 T _ZN11ZInputField11isUADEnableEv
41916c90 T _ZN11ZInputField12clearReverseEb
41916ca8 T _ZN11ZInputField12deleteStringE6QPointib
41916dd4 T _ZN11ZInputField12enableFilterEb
4191653c T _ZN11ZInputField12getCapsStateEv
419169d8 T _ZN11ZInputField12getCursorPosEv
41916530 T _ZN11ZInputField12getDelimiterER7QString
419165f0 T _ZN11ZInputField12getFieldNameEv
41916ef8 T _ZN11ZInputField12hasValidatorEv
41916cb8 T _ZN11ZInputField12insertStringE6QPoint7QStringb
41916cc8 T _ZN11ZInputField12insertStringE6QPoint7QStringiiiibi
41916120 T _ZN11ZInputField12isUADSupportEv
419169ec T _ZN11ZInputField12setCursorPosE6QPointib
419165c0 T _ZN11ZInputField12setFieldNameEPKc
41916c94 T _ZN11ZInputField12setUnderlineE6QPointibb
41916d1c T _ZN11ZInputField13getCharBoundsE6QPoint
419161bc T _ZN11ZInputField13getSymbolListEb
41916c74 T _ZN11ZInputField13setCursorFlagEi
41916c68 T _ZN11ZInputField13setCursorTypeEi
41916ca4 T _ZN11ZInputField14clearUnderlineEb
41916d00 T _ZN11ZInputField14getFieldBoundsEv
41916080 T _ZN11ZInputField14setDisplayAttrER6QPointii
419161d8 T _ZN11ZInputField15canInsertStringERK7QString
41917068 T _ZN11ZInputField15forceKeyReleaseEi
419165b4 T _ZN11ZInputField15getEditorWidgetEv
4191738c T _ZN11ZInputField15getEmoticonListER11QStringList
41916eec T _ZN11ZInputField15setRefocusdFlagEb
41917bec T _ZN11ZInputField16filterStringListER11QStringList
41916e28 T _ZN11ZInputField16getTextEntryModeEv
41916eb0 T _ZN11ZInputField16setCharDirectionEi
419165a8 T _ZN11ZInputField17getChunkDelimiterER7QString
4191694c T _ZN11ZInputField17getTopWidgetWinIdEv
41916d74 T _ZN11ZInputField18getUnderlineBoundsE6QPoint
419160d8 T _ZN11ZInputField18isCompletionEnableEv
41916f00 T _ZN11ZInputField18sendConfirmMessageEv
41916c7c T _ZN11ZInputField18setCursorDirectionEi
41916084 T _ZN11ZInputField19isCompletionSupportEv
41916c78 T _ZN11ZInputField21setInputModeDirectionEi
41918508 T _ZN11ZInputField22setPreferredInputModesERK10QValueListI5QUuidERKS1_
41916ce8 T _ZN11ZInputField6formatE7QString
4191697c T _ZN11ZInputField7getTextE6QPointb
419169e8 T _ZN11ZInputField7setTextE7QString
419166dc T _ZN11ZInputField7setTypeEi
41916930 T _ZN11ZInputField8getWinIdEv
41916dcc T _ZN11ZInputField9maxLengthEv
41917a94 T _ZN11ZInputFieldC1EP7QWidget
41917b40 T _ZN11ZInputFieldC2EP7QWidget
419174a4 T _ZN11ZInputFieldD0Ev
419176a4 T _ZN11ZInputFieldD1Ev
4191789c T _ZN11ZInputFieldD2Ev
4191bbd0 T _ZN11ZKbIMConfig13getModeStringERK5QUuidRb
4191c7c8 T _ZN11ZKbIMConfig13setUADSettingEb
41920754 T _ZN11ZKbIMConfig14getLangContextER10QValueListIN9ZKbGlobal14ZKbLangContextEE
4191ca50 T _ZN11ZKbIMConfig14isRTLLangauageEN13UTIL_Language10LanguageIdE
4191ca74 T _ZN11ZKbIMConfig15getNumberSystemEN13UTIL_Language10LanguageIdE
4191dfd0 T _ZN11ZKbIMConfig15isLangSupportedERK7QString
4191e1e0 T _ZN11ZKbIMConfig15isLangSupportedERKN13UTIL_Language10LanguageIdE
4191dc08 T _ZN11ZKbIMConfig15isSupportedbyIMERK7QStringRK5QUuid
4191df54 T _ZN11ZKbIMConfig15isSupportedbyIMERKN13UTIL_Language10LanguageIdERK5QUuid
4191f8bc T _ZN11ZKbIMConfig15readLangContextER10QValueListIN9ZKbGlobal14ZKbLangContextEERK7QStringS7_S5_
4191cb08 T _ZN11ZKbIMConfig16getInputLangListEv
4191c8f8 T _ZN11ZKbIMConfig17getTimeOutSettingEiRi
4192051c T _ZN11ZKbIMConfig17readLangContextWSER10QValueListIN9ZKbGlobal14ZKbLangContextEERK7QStringS7_
4191f1c0 T _ZN11ZKbIMConfig17reaListFromWSFileEP9QFileInfoR10QValueListIN16ZKbWritingSystem15WritingSystemIdEE
4191e230 T _ZN11ZKbIMConfig18getInputLangIdListEv
4191ca64 T _ZN11ZKbIMConfig18hasOwnNumberSystemEN13UTIL_Language10LanguageIdE
4191e740 T _ZN11ZKbIMConfig19getProperLanguageIDEN13UTIL_Language10LanguageIdE
41921568 W _ZN11ZKbIMConfig20getDefaultKeyMappingEi
4191c590 T _ZN11ZKbIMConfig20getPredictionSettingERbS0_
4191c4a0 T _ZN11ZKbIMConfig20getSystemSettingFileEb
4191f6c0 T _ZN11ZKbIMConfig20getWritingSystemListER10QValueListIN16ZKbWritingSystem15WritingSystemIdEE
4191c698 T _ZN11ZKbIMConfig20setCompletionSettingEb
4191e8f8 T _ZN11ZKbIMConfig24getModeSupportedLanguageERK5QUuid
4191dfac T _ZN11ZKbIMConfig25isModeSupportedByLanguageERK5QUuidN13UTIL_Language10LanguageIdE
41a0f8ac T _ZN11ZMainWidget10getKbStateEv
41a0eda0 T _ZN11ZMainWidget11eventFilterEP7QObjectP6QEvent
41a0f8a0 T _ZN11ZMainWidget11getEditModeEv
41a90ee4 W _ZN11ZMainWidget11hideToolBarEv
41a90ed4 W _ZN11ZMainWidget11showToolBarEv
41a0f434 T _ZN11ZMainWidget12getCSTWidgetEb
41a0f244 T _ZN11ZMainWidget12setCSTWidgetEP7QWidget
41a0fd90 T _ZN11ZMainWidget13getVBoxLayoutEv
41a0ef7c T _ZN11ZMainWidget13paletteChangeERK8QPalette
41a0f744 T _ZN11ZMainWidget13slotPopupMenuEi
41a0feb4 T _ZN11ZMainWidget14setInputMethodEP7QWidgetRK5QUuidi7QString
41a0f7a0 T _ZN11ZMainWidget14setInputMethodERK5QUuidi
41a0fd88 T _ZN11ZMainWidget15getLRSBaseIndexEv
41a0f7a8 T _ZN11ZMainWidget15hideInputWidgetEv
41a0fd9c T _ZN11ZMainWidget15setInputMethodsEP7QWidgetRK5QUuidi7QString
41a0f7dc T _ZN11ZMainWidget15setInputMethodsEP7QWidgetRK5QUuidRK10QValueListIS2_Ei7QString
41a0f478 T _ZN11ZMainWidget16getContentWidgetEb
41a0f4bc T _ZN11ZMainWidget16setContentWidgetEP7QWidget
41a90fb8 T _ZN11ZMainWidget16staticMetaObjectEv
41a0fd44 T _ZN11ZMainWidget17getFullScreenModeEv
41a0f238 T _ZN11ZMainWidget17getTitleBarWidgetEv
41a0f7ac T _ZN11ZMainWidget17invokeInputWidgetEv
41a0f908 T _ZN11ZMainWidget17setFullScreenModeEbb
41a0ef80 T _ZN11ZMainWidget17setTitleBarWidgetEP7QWidget
41a0f74c T _ZN11ZMainWidget19showWithInputMethodERK5QUuidi
41a0f740 T _ZN11ZMainWidget26setupInputMethodsPopupMenuEv
41a0f730 T _ZN11ZMainWidget4hideEv
41a0f72c T _ZN11ZMainWidget4showEv
41a1061c T _ZN11ZMainWidgetC1EbP7QWidgetPKcj
41a10464 T _ZN11ZMainWidgetC1EP7QWidgetPKcj
41a10284 T _ZN11ZMainWidgetC1ERK7QStringbP7QWidgetPKcj
41a10710 T _ZN11ZMainWidgetC2EbP7QWidgetPKcj
41a10540 T _ZN11ZMainWidgetC2EP7QWidgetPKcj
41a10374 T _ZN11ZMainWidgetC2ERK7QStringbP7QWidgetPKcj
41a0ff40 T _ZN11ZMainWidgetD0Ev
41a1005c T _ZN11ZMainWidgetD1Ev
41a10170 T _ZN11ZMainWidgetD2Ev
41a57010 T _ZN11ZMessageDlg13keyPressEventEP9QKeyEvent
41a958d4 T _ZN11ZMessageDlg14initMetaObjectEv
41a56f94 T _ZN11ZMessageDlg15keyReleaseEventEP9QKeyEvent
41a9584c T _ZN11ZMessageDlg16staticMetaObjectEv
41a957a8 T _ZN11ZMessageDlg2trEPKc
41a957fc T _ZN11ZMessageDlg2trEPKcS1_
41a56ba8 T _ZN11ZMessageDlg7setTypeENS_14MessageDlgTypeE
41a56ac0 T _ZN11ZMessageDlgC1EP7QWidgetPKcbj
41a56e44 T _ZN11ZMessageDlgC1ERK7QStringS2_NS_14MessageDlgTypeEiP7QWidgetPKcbj
41a56b34 T _ZN11ZMessageDlgC2EP7QWidgetPKcbj
41a56eec T _ZN11ZMessageDlgC2ERK7QStringS2_NS_14MessageDlgTypeEiP7QWidgetPKcbj
41a569fc T _ZN11ZMessageDlgD0Ev
41a56984 T _ZN11ZMessageDlgD1Ev
41a5690c T _ZN11ZMessageDlgD2Ev
41a37c4c T _ZN11ZSkinReader19getSelectedCheckBoxEv
41a37cf4 T _ZN11ZSkinReader21getUnselectedCheckBoxEv
41a37d9c T _ZN11ZSkinReader22getRadioButtonSelectedEv
41a37e44 T _ZN11ZSkinReader24getRadioButtonUnselectedEv
41a37df0 T _ZN11ZSkinReader25getRadioButtonSelDisabledEv
41a37e98 T _ZN11ZSkinReader27getRadioButtonUnselDisabledEv
41a37ca0 T _ZN11ZSkinReader27getSelectedCheckBoxDisabledEv
41a37d48 T _ZN11ZSkinReader29getUnselectedCheckBoxDisabledEv
419cf738 T _ZN11ZSoftButton10getOptMenuEv
419d007c T _ZN11ZSoftButton10getPaddingEi
419d0060 T _ZN11ZSoftButton10getSpacingEv
419cfb94 T _ZN11ZSoftButton13getWidgetRectEv
419cfe6c T _ZN11ZSoftButton15getIconDrawRectERK5QRectRK7QPixmapb
419d0100 T _ZN11ZSoftButton7getRectEv
419cf81c T _ZN11ZSoftButton9getPixmapERK7QString
4198167c T _ZN11ZTextWidget13setWrapPolicyEN9ZWrapLine10WrapPolicyE
419b4fd0 T _ZN11ZTimeModule12setTimeValueE5QTime
419b4f60 T _ZN11ZTimeModule7getTimeEv
419b444c T _ZN11ZTimeModule9getPickerEv
419b1b00 T _ZN11ZTimePicker12setTimeValueE5QTime
419b2df8 T _ZN11ZTimePicker17getSelectedPixmapEv
419b2be8 T _ZN11ZTimePicker17getStandardPixmapEv
419b2b14 T _ZN11ZTimePicker21getHighSelectedPixmapEv
419b2a38 T _ZN11ZTimePicker23getUpHighSelectedPixmapEv
419b295c T _ZN11ZTimePicker25getDownHighSelectedPixmapEv
419b1dbc T _ZN11ZTimePicker7getTimeEv
419b3e10 T _ZN11ZTimePickerC1E5QTimeP7QWidgetPKcjN12ZSkinService11WidgetClsIDE
419b40f0 T _ZN11ZTimePickerC1E5QTimeS0_S0_P7QWidgetPKcjN12ZSkinService11WidgetClsIDE
419b3fa8 T _ZN11ZTimePickerC1EP7QWidgetPKcjN12ZSkinService11WidgetClsIDE
419b3edc T _ZN11ZTimePickerC2E5QTimeP7QWidgetPKcjN12ZSkinService11WidgetClsIDE
419b418c T _ZN11ZTimePickerC2E5QTimeS0_S0_P7QWidgetPKcjN12ZSkinService11WidgetClsIDE
419b404c T _ZN11ZTimePickerC2EP7QWidgetPKcjN12ZSkinService11WidgetClsIDE
4193a758 T _ZN12AM_Connector7appExitEv
4193a6cc T _ZN12AM_Connector8appStartERK5QUuid
4193a4ac T _ZN12AM_Connector8instanceEv
41a662e8 T _ZN12KbAltControl12getProperPosEb6QPoint
         U _ZN12QApplication10allWidgetsEv
         U _ZN12QApplication10setPaletteERK8QPalettebPKc
         U _ZN12QApplication12focus_widgetE
         U _ZN12QApplication13active_windowE
         U _ZN12QApplication13processEventsEv
         U _ZN12QApplication13setMainWidgetEP7QWidget
         U _ZN12QApplication15cursorFlashTimeEv
         U _ZN12QApplication15wakeUpGuiThreadEv
         U _ZN12QApplication16openLayoutEngineEv
         U _ZN12QApplication16removeTranslatorEP11QTranslator
         U _ZN12QApplication16sendPostedEventsEP7QObjecti
         U _ZN12QApplication16setEffectEnabledEN2Qt8UIEffectEb
         U _ZN12QApplication16staticMetaObjectEv
         U _ZN12QApplication17activeModalWidgetEv
         U _ZN12QApplication17activePopupWidgetEv
         U _ZN12QApplication17installTranslatorEP11QTranslator
         U _ZN12QApplication17setOverrideCursorERK7QCursorb
         U _ZN12QApplication19setOpenLayoutEngineEb
         U _ZN12QApplication21restoreOverrideCursorEv
         U _ZN12QApplication4execEv
         U _ZN12QApplication4fontEPK7QWidget
         U _ZN12QApplication4quitEv
         U _ZN12QApplication5syncXEv
         U _ZN12QApplication6notifyEP7QObjectP6QEvent
         U _ZN12QApplication6polishEP7QWidget
         U _ZN12QApplication7desktopEv
         U _ZN12QApplication7paletteEPK7QWidget
         U _ZN12QApplication7setFontERK5QFontbPKc
         U _ZN12QApplication8setStyleEP6QStyle
         U _ZN12QApplication9app_strutE
         U _ZN12QApplication9app_styleE
         U _ZN12QApplication9clipboardEv
         U _ZN12QApplication9postEventEP7QObjectP6QEvent
         U _ZN12QApplicationC2ERiPPcNS_4TypeE
         U _ZN12QApplicationD2Ev
         U _ZN12QCommonStyle18scrollBarPointOverEPK10QScrollBariRK6QPoint
         U _ZN12QCommonStyle19drawComboButtonMaskEP8QPainteriiii
         U _ZN12QCommonStyle19drawPushButtonLabelEP11QPushButtonP8QPainter
         U _ZN12QCommonStyle20drawSliderGrooveMaskEP8QPainteriiiiiN2Qt11OrientationE
         U _ZN12QCommonStyle26popupSubmenuIndicatorWidthERK12QFontMetrics
         U _ZN12QConstStringC1EP5QCharj
         U _ZN12QConstStringD1Ev
         U _ZN12QCustomEventC1Ei
         U _ZN12QCustomEventC2Ei
         U _ZN12QFontMetricsaSERKS_
         U _ZN12QFontMetricsC1ERK5QFont
         U _ZN12QFontMetricsC1ERKS_
         U _ZN12QFontMetricsD1Ev
         U _ZN12QPaintDevice3cmdEiP8QPainterP13QPDevCmdParam
         U _ZN12QSharePixmap3setERK7QPixmap
         U _ZN12QSharePixmap4lockEv
         U _ZN12QSharePixmap6attachER7QPixmap
         U _ZN12QSharePixmap6createEiii
         U _ZN12QSharePixmap6existsEv
         U _ZN12QSharePixmap6unlockEv
         U _ZN12QSharePixmap7destroyEv
         U _ZN12QSharePixmapC1ERK7QString
         U _ZN12QSharePixmapD1Ev
418df678 T _ZN12UTIL_MemInfo11slabFreeMemEv
418dfad8 T _ZN12UTIL_MemInfo12printCurrentEv
418df108 T _ZN12UTIL_MemInfo7refreshEv
418dfa70 T _ZN12UTIL_MemInfoC1Ev
418dfb04 T _ZN12UTIL_MemInfoC2Ev
418debe8 T _ZN12UTIL_MemInfoD1Ev
418debd0 T _ZN12UTIL_MemInfoD2Ev
41ac0c70 D _ZN12UTIL_ResFile10headerTextE
41a9c6a4 R _ZN12UTIL_ResFile14dataBlockCheckE
41a9c6a8 R _ZN12UTIL_ResFile15startBlockCheckE
41a03c24 T _ZN12ZAppInfoArea10appendIconENS_8AREA_IDXERK7QPixmapRK7QString
41a03b50 T _ZN12ZAppInfoArea10appendIconENS_8AREA_IDXERK7QStringRK7QPixmapS3_
41a03c5c T _ZN12ZAppInfoArea10appendIconENS_8AREA_IDXERK7QStringS3_
41a03cb0 T _ZN12ZAppInfoArea10appendTextENS_8AREA_IDXERK7QStringS3_
41a02550 T _ZN12ZAppInfoArea10deleteAreaENS_8AREA_IDXERi
41a03d5c T _ZN12ZAppInfoArea10insertIconENS_8AREA_IDXEiRK7QPixmapRK7QString
41a03e9c T _ZN12ZAppInfoArea10insertIconENS_8AREA_IDXEiRK7QStringS3_
41a03fdc T _ZN12ZAppInfoArea10insertTextENS_8AREA_IDXEiRK7QStringS3_
41a027b0 T _ZN12ZAppInfoArea10paintEventEP11QPaintEvent
41a04c1c T _ZN12ZAppInfoArea10removeAreaENS_8AREA_IDXE
41a03ac4 T _ZN12ZAppInfoArea10removeItemENS_8AREA_IDXEi
41a03968 T _ZN12ZAppInfoArea10removeItemENS_8AREA_IDXERK7QString
41a001f8 T _ZN12ZAppInfoArea10setActAreaENS_13ACTIVITY_MODEE
41a04cb0 T _ZN12ZAppInfoArea10setPaletteERK8QPalette
41a00168 T _ZN12ZAppInfoArea11getActMeterEv
41a00220 T _ZN12ZAppInfoArea11isValidAreaENS_8AREA_IDXE
41a02e2c T _ZN12ZAppInfoArea12appendWidgetENS_8AREA_IDXEP7QWidgetRK7QString
41a02fa4 T _ZN12ZAppInfoArea12insertWidgetENS_8AREA_IDXEiP7QWidgetRK7QString
41a00218 T _ZN12ZAppInfoArea12setInputAreaEv
41a04db4 T _ZN12ZAppInfoArea13getMeterStyleEv
41a00684 T _ZN12ZAppInfoArea13getWidgetRectEv
41a04da8 T _ZN12ZAppInfoArea13setMeterStyleENS_11METER_STYLEE
41a04700 T _ZN12ZAppInfoArea14setCounterAreaENS_12COUNTER_MODEE
41a04614 T _ZN12ZAppInfoArea14setCounterIconENS_17COUNTERICON_ALIGNERK7QPixmap
41a04680 T _ZN12ZAppInfoArea14setCounterIconENS_17COUNTERICON_ALIGNERK7QString
41a00390 T _ZN12ZAppInfoArea14setCounterIconENS_17COUNTERICON_ALIGNERK7QStringRK7QPixmap
41a04bb0 T _ZN12ZAppInfoArea14setStorageIconERK7QPixmap
41a04bd8 T _ZN12ZAppInfoArea14setStorageIconERK7QString
41a02ed0 T _ZN12ZAppInfoArea15appendAnimationENS_8AREA_IDXERK7QStringS3_
41a0011c T _ZN12ZAppInfoArea15getTotalItemNumEv
41a030d8 T _ZN12ZAppInfoArea15insertAnimationENS_8AREA_IDXEiRK7QStringS3_
41a0113c T _ZN12ZAppInfoArea16getInitAreaWidthEP8ZFmwArea
41a8fe64 T _ZN12ZAppInfoArea16staticMetaObjectEv
41a04514 T _ZN12ZAppInfoArea17removeCounterIconEv
41a023b8 T _ZN12ZAppInfoArea18cropWidgetFromAreaENS_8AREA_IDXERi
41a02084 T _ZN12ZAppInfoArea18removeIconFromAreaENS_8AREA_IDXERiMS_FbS0_P8ZFmwItemE
41a042fc T _ZN12ZAppInfoArea18setCounterVariableENS_9COUNTER_VERK7QString
41a0411c T _ZN12ZAppInfoArea19setCounterQualifierERK7QString
41a01f60 T _ZN12ZAppInfoArea20isRemoveIconFromAreaENS_8AREA_IDXEP8ZFmwItem
41a02240 T _ZN12ZAppInfoArea20truncateTextFromAreaENS_8AREA_IDXERi
41a00230 T _ZN12ZAppInfoArea21isAreaCouldInsertItemENS_8AREA_IDXE
41a01e34 T _ZN12ZAppInfoArea24isRemoveNewWordFromInputENS_8AREA_IDXEP8ZFmwItem
41a01c8c T _ZN12ZAppInfoArea25getAreaWidthExceptStorageEv
41a012e8 T _ZN12ZAppInfoArea7getRectEv
41a03828 T _ZN12ZAppInfoArea7setIconENS_8AREA_IDXEiRK7QPixmap
41a038c8 T _ZN12ZAppInfoArea7setIconENS_8AREA_IDXEiRK7QString
41a034c0 T _ZN12ZAppInfoArea7setIconENS_8AREA_IDXERK7QStringRK7QPixmap
41a03608 T _ZN12ZAppInfoArea7setIconENS_8AREA_IDXERK7QStringS3_
41a03750 T _ZN12ZAppInfoArea7setTextENS_8AREA_IDXEiRK7QString
41a03328 T _ZN12ZAppInfoArea7setTextENS_8AREA_IDXERK7QStringS3_
41a04dc0 T _ZN12ZAppInfoArea8getWidthENS_8AREA_IDXE
41a04e08 T _ZN12ZAppInfoArea9printAreaENS_8AREA_IDXE
41a02d60 T _ZN12ZAppInfoArea9setWidgetENS_8AREA_IDXEiP7QWidget
41a031b4 T _ZN12ZAppInfoArea9setWidgetENS_8AREA_IDXERK7QStringP7QWidget
41a052e4 T _ZN12ZAppInfoAreaC1EP7QWidgetPKcjN12ZSkinService11WidgetClsIDE
41a053b8 T _ZN12ZAppInfoAreaC2EP7QWidgetPKcjN12ZSkinService11WidgetClsIDE
41a04ff8 T _ZN12ZAppInfoAreaD0Ev
41a0507c T _ZN12ZAppInfoAreaD1Ev
41a050f0 T _ZN12ZAppInfoAreaD2Ev
418e0160 T _ZN12ZApplication10getAppNameEv
418e1dec T _ZN12ZApplication10getKBStateEv
418e0a00 T _ZN12ZApplication10loadStringERK7QString
418e2160 T _ZN12ZApplication10setAppFSBAERK7QPixmapii
418e1818 T _ZN12ZApplication10timerEventEP11QTimerEvent
418e75f0 T _ZN12ZApplication11eventFilterEP7QObjectP6QEvent
418e2360 T _ZN12ZApplication12getFSBAImageEi
418e759c T _ZN12ZApplication12getMouseModeEP7QWidget
418e7958 T _ZN12ZApplication12setMouseModeEP7QWidgeti
418e02d8 T _ZN12ZApplication12slotShutdownEv
418e245c T _ZN12ZApplication13getAppChannelEv
418e09f0 T _ZN12ZApplication13getAutoHideKbEv
418e02f8 T _ZN12ZApplication13slotQuickQuitEv
41a7557c T _ZN12ZApplication14initMetaObjectEv
418e1940 T _ZN12ZApplication14qwsEventFilterEP8QWSEvent
418e7c20 T _ZN12ZApplication14setInputMethodEP7QWidgetRK5QUuidi7QString
418e2378 T _ZN12ZApplication15getAppSysFSBAIDEv
418e09e4 T _ZN12ZApplication15getAutoInvokeKbEv
418e1f10 T _ZN12ZApplication15getKbInputFieldEP7QWidget
418e2b10 T _ZN12ZApplication15raiseAppWindowsEv
418e09e0 T _ZN12ZApplication15setAutoInvokeKbEb
418e1df4 T _ZN12ZApplication15setAutoInvokeKbEP7QWidgetb
418e1f40 T _ZN12ZApplication15setInputMethodsEP7QWidgetRK5QUuidRK10QValueListIS2_Ei7QString
418e0360 T _ZN12ZApplication15slotThemeChangeEv
418e0340 T _ZN12ZApplication16slotClickAppIconEv
418e7ba4 T _ZN12ZApplication16slotReturnToIdleEi
41a73d64 T _ZN12ZApplication16staticMetaObjectEv
418e09b4 T _ZN12ZApplication16updateIMNameListEv
418e7a48 T _ZN12ZApplication17askDialogsDismissEi
418e2f74 T _ZN12ZApplication17getAppChannelNameEv
418e075c T _ZN12ZApplication18getDefaultKbMethodEb
418e0344 T _ZN12ZApplication18slotLanguageChangeEv
418e0740 T _ZN12ZApplication18stopShowWaitCursorEv
41a768d0 T _ZN12ZApplication19signalBridgeMessageERK6QArrayIcE
41a76768 T _ZN12ZApplication19signalBridgeMessageERK8QCStringRK6QArrayIcE
418e0318 T _ZN12ZApplication19slotUsbStorageInOutEb
418e06ec T _ZN12ZApplication19startShowWaitCursorEiRK7QString
418e0984 T _ZN12ZApplication21getTouchSoundMsgQueueEv
418e2118 T _ZN12ZApplication22getSkinnablePropertiesEv
418e1f38 T _ZN12ZApplication22registerEditableWidgetEPKc
418e03d8 T _ZN12ZApplication27slotKillactionByMassstorageEv
418e03d4 T _ZN12ZApplication28slotLaunchactionByAnotherAppERK5QUuid
418e037c T _ZN12ZApplication28slotLaunchactionByIdlescreenERK5QUuid
418e0398 T _ZN12ZApplication28slotLaunchactionByMainscreenERK5QUuid
418e03d0 T _ZN12ZApplication30slotLaunchactionByDedicatedkeyERK5QUuid
418e03b4 T _ZN12ZApplication30slotLaunchactionByVoicecommandERK5QUuid
41a76600 T _ZN12ZApplication31signalBridgeMessageWithoutRaiseERK8QCStringRK6QArrayIcE
418e7544 T _ZN12ZApplication4execEv
418e2724 T _ZN12ZApplication6notifyEP7QObjectP6QEvent
418e23fc T _ZN12ZApplication7getFSBAEPK7ZWidget
418e2ebc T _ZN12ZApplication7tryQuitEv
41a75608 T _ZN12ZApplication8shutdownEv
418e74f8 T _ZN12ZApplication9flushMsgsEv
418e8a8c T _ZN12ZApplication9getIMListEv
41a7562c T _ZN12ZApplication9quickQuitEv
418e2b18 T _ZN12ZApplication9slotRaiseEv
418e57e0 T _ZN12ZApplicationC1ERiPPcN12QApplication4TypeE
418e60c0 T _ZN12ZApplicationC2ERiPPcN12QApplication4TypeE
418e3a1c T _ZN12ZApplicationD0Ev
418e3e0c T _ZN12ZApplicationD1Ev
418e41f4 T _ZN12ZApplicationD2Ev
419ba388 T _ZN12ZColorModule12getColorNameE6QColor
419b9a10 T _ZN12ZColorModule13getColorIndexE6QColorPKji
419ba7c4 T _ZN12ZColorModule14getColorPickerEv
419b9d6c T _ZN12ZColorModule15getRowAndColumnEii
419ba7b4 T _ZN12ZColorModule19getCurrentColorWellEv
419b9af8 T _ZN12ZColorModule20getColorRowAndColumnEiRiS0_
419ba36c T _ZN12ZColorModule8getColorEv
419b848c T _ZN12ZColorPicker11getWellSizeEv
419b8570 T _ZN12ZColorPicker16getHighLightSideEv
419b85cc T _ZN12ZColorPicker19getCurrentFocusRectEb
41a447fc T _ZN12ZDateControl12setDateValueE5QDate
41a448e4 T _ZN12ZDateControl12setStartDateE5QDate
41a4426c T _ZN12ZDateControl7getDateEv
41a44320 T _ZN12ZDateControl9getPickerEv
41a45ebc T _ZN12ZDateControlC1E5QDateS0_S0_RK7QStringN7ZButton13TitlePositionEP7QWidgetPKcj
41a45d1c T _ZN12ZDateControlC1EP7QWidgetPKcj
41a45fe0 T _ZN12ZDateControlC2E5QDateS0_S0_RK7QStringN7ZButton13TitlePositionEP7QWidgetPKcj
41a45dec T _ZN12ZDateControlC2EP7QWidgetPKcj
4196d1a0 T _ZN12ZListBoxItem10setSubItemEii7QStringbPK7QPixmap
4196d008 T _ZN12ZListBoxItem10setSubItemEii7QStringS0_PK7QPixmapj
4196d2f4 T _ZN12ZListBoxItem10setSubItemEiiP7QPixmapj
4196dba4 T _ZN12ZListBoxItem10showColumnEib
4196e570 T _ZN12ZListBoxItem11stopMarqueeEv
4196daec T _ZN12ZListBoxItem12setSortIndexEii
4196dc20 T _ZN12ZListBoxItem12startMarqueeEv
4196e18c T _ZN12ZListBoxItem13appendSubItemEi7QStringbPK7QPixmap
4196e364 T _ZN12ZListBoxItem13appendSubItemEi7QStringS0_PK7QPixmapjNS_12ShowPriorityE
4196dfc0 T _ZN12ZListBoxItem13appendSubItemEiP7QPixmapj
419709e8 T _ZN12ZListBoxItem13deleteSubItemEii
4196d9f0 T _ZN12ZListBoxItem13keyPressEventEP9QKeyEvent
41970b50 T _ZN12ZListBoxItem14getSubItemIconEii
4196d4a4 T _ZN12ZListBoxItem14getSubItemTextEiib
4196dd58 T _ZN12ZListBoxItem16setShowIndicatorEb
4196d7dc T _ZN12ZListBoxItem16setSubItemShowedEiib
4196d580 T _ZN12ZListBoxItem17getCurrentSubItemEi
4196d5e8 T _ZN12ZListBoxItem17setCurrentSubItemEii
4196dc8c T _ZN12ZListBoxItem17setPartialStrInfoEiiiii
4196fe3c T _ZN12ZListBoxItem5paintEP8QPainter
4196ce98 T _ZN12ZListBoxItem9getPixmapEi
4196cd50 T _ZN12ZListBoxItem9setPixmapEiRK7QPixmapb
41971150 T _ZN12ZListBoxItemC1EP8ZListBox7QString
41971744 T _ZN12ZListBoxItemC2EP8ZListBox7QString
41970c74 T _ZN12ZListBoxItemD0Ev
41970d08 T _ZN12ZListBoxItemD1Ev
41970d8c T _ZN12ZListBoxItemD2Ev
419805c4 T _ZN12ZMarqueeText11setGeometryEiiii
4198068c T _ZN12ZMarqueeText13setWrapPolicyEN9ZWrapLine10WrapPolicyE
41980cac T _ZN12ZMarqueeText4stopEv
4197fcb4 T _ZN12ZMarqueeText5paintER8QPainteri7QStringPK5QRectb6QColori
41980b5c T _ZN12ZMarqueeText5startEjjjjb
4197fb48 T _ZN12ZMarqueeText7getLineEi
419804d4 T _ZN12ZMarqueeText7setFontER5QFont
41980a6c T _ZN12ZMarqueeText7setTextERK7QString
4197f6b4 T _ZN12ZMarqueeText9setParentEP7QWidget
419809b4 T _ZN12ZMarqueeTextC1ERK7QStringP7QWidgetb
41980864 T _ZN12ZMarqueeTextC1Ev
41980a10 T _ZN12ZMarqueeTextC2ERK7QStringP7QWidgetb
4198090c T _ZN12ZMarqueeTextC2Ev
4197f434 T _ZN12ZMarqueeTextD0Ev
4197f35c T _ZN12ZMarqueeTextD1Ev
4197f284 T _ZN12ZMarqueeTextD2Ev
419c1560 T _ZN12ZMeterModule12setAlignmentENS_9AlignmentE
419c1e38 T _ZN12ZMeterModule12setLabelTextE7QString
419c1254 T _ZN12ZMeterModuleC1E7QStringP7QWidgetPKcjN12ZSkinService11WidgetClsIDES6_
419c1058 T _ZN12ZMeterModuleC1EiiP7QWidgetPKcjN12ZSkinService11WidgetClsIDES5_
419c1480 T _ZN12ZMeterModuleC1EiP7QWidgetPKcjN12ZSkinService11WidgetClsIDES5_
419c113c T _ZN12ZMeterModuleC2E7QStringP7QWidgetPKcjN12ZSkinService11WidgetClsIDES6_
419c0f74 T _ZN12ZMeterModuleC2EiiP7QWidgetPKcjN12ZSkinService11WidgetClsIDES5_
419c13ac T _ZN12ZMeterModuleC2EiP7QWidgetPKcjN12ZSkinService11WidgetClsIDES5_
419c1700 T _ZN12ZMeterModuleD0Ev
419c165c T _ZN12ZMeterModuleD1Ev
419c15b8 T _ZN12ZMeterModuleD2Ev
41a5b5a4 T _ZN12ZNoticeDelay13keyPressEventEP9QKeyEvent
41a5b584 T _ZN12ZNoticeDelay14getMeterModuleEv
41a97070 T _ZN12ZNoticeDelay16staticMetaObjectEv
41a5b518 T _ZN12ZNoticeDelay18slotResizeAllChildEi
41a5b590 T _ZN12ZNoticeDelay8getMeterEv
41a5b31c T _ZN12ZNoticeDelayC1ERK7QStringP12ZMeterModuleP7QWidgetPKcj
41a5b218 T _ZN12ZNoticeDelayC2ERK7QStringP12ZMeterModuleP7QWidgetPKcj
41a5b4c0 T _ZN12ZNoticeDelayD0Ev
41a5b470 T _ZN12ZNoticeDelayD1Ev
41a5b420 T _ZN12ZNoticeDelayD2Ev
419e887c T _ZN12ZOptionsMenu10changeItemEiRK7QStringPK7QPixmap
419e6f70 T _ZN12ZOptionsMenu10closeEventEP11QCloseEvent
419e8f64 T _ZN12ZOptionsMenu10fontChangeERK5QFont
419ea610 T _ZN12ZOptionsMenu10insertItemEP16ZOptionsMenuItemii
419eb0d8 T _ZN12ZOptionsMenu10insertItemERK7QStringPK7QPixmapPK7QObjectPKcbbbiib
419ea70c T _ZN12ZOptionsMenu10insertItemERK7QStringPS_PK7QPixmapbiibbb
419e9ee0 T _ZN12ZOptionsMenu10paintEventEP11QPaintEvent
419eca8c T _ZN12ZOptionsMenu10removeItemEib
419e6cf8 T _ZN12ZOptionsMenu10setPaletteERK8QPalette
419ec010 T _ZN12ZOptionsMenu10updateSizeEv
419e8a18 T _ZN12ZOptionsMenu11connectItemEiPK7QObjectPKc
419e8688 T _ZN12ZOptionsMenu11setItemHideEib
419e6994 T _ZN12ZOptionsMenu11setPositionENS_7CornerEER6QPoint
419e8370 T _ZN12ZOptionsMenu12focusInEventEP11QFocusEvent
419e6878 T _ZN12ZOptionsMenu12setLimitRectEi
419e6828 T _ZN12ZOptionsMenu12setLimitRectERK5QRect
419e6e88 T _ZN12ZOptionsMenu13focusOutEventEP11QFocusEvent
419e7e30 T _ZN12ZOptionsMenu13getAllItemIdsEv
419ec4e0 T _ZN12ZOptionsMenu13keyPressEventEP9QKeyEvent
419eb67c T _ZN12ZOptionsMenu13setActiveItemEi
419e662c T _ZN12ZOptionsMenu13setParentMenuEPS_
419ea374 T _ZN12ZOptionsMenu14disconnectItemEiPK7QObjectPKc
419e6ec4 T _ZN12ZOptionsMenu14getIdFromIndexEi
419e8ee4 T _ZN12ZOptionsMenu14getIndexFromIdEi
419e8518 T _ZN12ZOptionsMenu14getItemSubMenuEi
41a8e958 T _ZN12ZOptionsMenu14initMetaObjectEv
419e8934 T _ZN12ZOptionsMenu14setItemCheckedEib
419e8778 T _ZN12ZOptionsMenu14setItemEnabledEib
419e8574 T _ZN12ZOptionsMenu14setItemSubMenuEiPS_
419e6f04 T _ZN12ZOptionsMenu15getActiveItemIdEv
419ea444 T _ZN12ZOptionsMenu15getItemParentIdEi
419ebbe0 T _ZN12ZOptionsMenu15keyReleaseEventEP9QKeyEvent
419e89ac T _ZN12ZOptionsMenu16setItemCheckableEib
41a8e434 T _ZN12ZOptionsMenu16staticMetaObjectEv
419ea2e4 T _ZN12ZOptionsMenu17getItemSubMenuNumEi
419ecb6c T _ZN12ZOptionsMenu17getListFromConfigER5QListI8MenuItemE7QStringS4_
419e848c T _ZN12ZOptionsMenu17setDisabledReasonEiRK7QString
419e6644 T _ZN12ZOptionsMenu19drawScrollIndicatorEP8QPainter
419e8ffc T _ZN12ZOptionsMenu19getMenuDisplayStateEPS_
419e6f10 T _ZN12ZOptionsMenu24getCurrentSelectedItemIdEv
419e8ae0 T _ZN12ZOptionsMenu25removeItemFromVisibleListEPS_P16ZOptionsMenuItem
419e8460 T _ZN12ZOptionsMenu25setDisabledReasonDlgTitleEiRK7QString
419e6788 T _ZN12ZOptionsMenu4hideEv
419e70ec T _ZN12ZOptionsMenu4initER5QRect
419e6b9c T _ZN12ZOptionsMenu4showEv
419e7084 T _ZN12ZOptionsMenu5clearEv
419e6638 T _ZN12ZOptionsMenu5countEv
419e6bf0 T _ZN12ZOptionsMenu5popupEv
419eac5c T _ZN12ZOptionsMenu7genMenuER5QRect5QListI8MenuItemE
419e8b50 T _ZN12ZOptionsMenu7resetHSEPS_
419edd10 T _ZN12ZOptionsMenu7setMenuE7QStringS0_
419e7e74 T _ZN12ZOptionsMenu7setMenuEP14ZOptMenuParser7QString
419e8bb4 T _ZN12ZOptionsMenu8initShowEv
419e6fbc T _ZN12ZOptionsMenu9hideEventEP10QHideEvent
419eaa70 T _ZN12ZOptionsMenu9ItemStateEPS_S0_P8MenuItem
419ede60 T _ZN12ZOptionsMenuC1ER5QRectP7QWidgetPKcjN12ZSkinService11WidgetClsIDE7QStringS8_
419e7740 T _ZN12ZOptionsMenuC1ER5QRectP7QWidgetPKcjN12ZSkinService11WidgetClsIDEb
419eae20 T _ZN12ZOptionsMenuC1ER5QRectP7QWidgetPKcjN12ZSkinService11WidgetClsIDEP14ZOptMenuParser7QStringb
419edff8 T _ZN12ZOptionsMenuC2ER5QRectP7QWidgetPKcjN12ZSkinService11WidgetClsIDE7QStringS8_
419e77c8 T _ZN12ZOptionsMenuC2ER5QRectP7QWidgetPKcjN12ZSkinService11WidgetClsIDEb
419eaf7c T _ZN12ZOptionsMenuC2ER5QRectP7QWidgetPKcjN12ZSkinService11WidgetClsIDEP14ZOptMenuParser7QStringb
419e7850 T _ZN12ZOptionsMenuD0Ev
419e7a34 T _ZN12ZOptionsMenuD1Ev
419e7c10 T _ZN12ZOptionsMenuD2Ev
41a4f6c8 T _ZN12ZPopupHeader10paintEventEP11QPaintEvent
41a4f67c T _ZN12ZPopupHeader11setGeometryEiiii
41a500fc T _ZN12ZPopupHeader11setHSpacingEi
41a50108 T _ZN12ZPopupHeader11setVSpacingEi
41a4ff3c T _ZN12ZPopupHeader12setTitleFontERK5QFonti
41a4ffbc T _ZN12ZPopupHeader13setTitleColorERK6QColori
41a4ee28 T _ZN12ZPopupHeader15setPrimaryTitleERK7QString
41a5003c T _ZN12ZPopupHeader15setTitleOutlineEbi
41a94c10 T _ZN12ZPopupHeader16staticMetaObjectEv
41a4ef70 T _ZN12ZPopupHeader17setSecondaryTitleERK7QString
41a500dc T _ZN12ZPopupHeader17setTitleAlignmentEii
41a5005c T _ZN12ZPopupHeader20setTitleOutlineColorERK6QColori
41a4f0c0 T _ZN12ZPopupHeader7setIconERK7QPixmapi
41a50340 T _ZN12ZPopupHeader7setIconERK7QStringi
41a4ee10 T _ZN12ZPopupHeader7setTypeENS_13HEADER_TYPE_EE
41a4f2a0 T _ZN12ZPopupHeader8doLayoutEv
41a4f698 T _ZN12ZPopupHeader9showEventEP10QShowEvent
41a4e4c8 T _ZN12ZPopupHeaderC1ENS_13HEADER_TYPE_EEP7QWidgetPKcj
41a4e2e4 T _ZN12ZPopupHeaderC2ENS_13HEADER_TYPE_EEP7QWidgetPKcj
41a4eb94 T _ZN12ZPopupHeaderD0Ev
41a4e920 T _ZN12ZPopupHeaderD1Ev
41a4e6ac T _ZN12ZPopupHeaderD2Ev
4198ef4c T _ZN12ZPressButton10drawButtonEP8QPainter
4198d80c T _ZN12ZPressButton10isZEnabledEv
4198f538 T _ZN12ZPressButton10setEnabledEb
4198f550 T _ZN12ZPressButton10setPaletteERK8QPalette
4198f57c T _ZN12ZPressButton10updateSkinEb
4198d808 T _ZN12ZPressButton11resizeEventEP12QResizeEvent
4198fe30 T _ZN12ZPressButton12focusInEventEP11QFocusEvent
4198dd2c T _ZN12ZPressButton12setAlignmentEN2Qt14AlignmentFlagsE
4198f488 T _ZN12ZPressButton12setFontColorERK6QColor
4198fda8 T _ZN12ZPressButton13focusOutEventEP11QFocusEvent
4198ff90 T _ZN12ZPressButton13keyPressEventEP9QKeyEvent
41a8413c T _ZN12ZPressButton14initMetaObjectEv
4198e7d4 T _ZN12ZPressButton15drawButtonLabelEP8QPainter
4198fd18 T _ZN12ZPressButton15keyReleaseEventEP9QKeyEvent
41990118 T _ZN12ZPressButton15setToggleButtonEb
4198e438 T _ZN12ZPressButton16setTitlePositionENS_13TitlePositionE
41a83fcc T _ZN12ZPressButton16staticMetaObjectEv
419901c8 T _ZN12ZPressButton17setAvailableWidthEi
4198d940 T _ZN12ZPressButton18setPixmap_internalERK7QPixmap
419900bc T _ZN12ZPressButton5setOnEb
4198f404 T _ZN12ZPressButton7setFontERK5QFont
4198d8d0 T _ZN12ZPressButton7setTextERK7QString
4198fc18 T _ZN12ZPressButton8setTitleERK7QString
4198daac T _ZN12ZPressButton9setPixmapERK7QPixmap
4198d618 T _ZN12ZPressButtonC1EP7QWidgetPKcN12ZSkinService11WidgetClsIDE
4198dad4 T _ZN12ZPressButtonC1ERK7QPixmapRK7QStringP7QWidgetPKcN12ZSkinService11WidgetClsIDE
4198d3e8 T _ZN12ZPressButtonC1ERK7QStringP7QWidgetPKcN12ZSkinService11WidgetClsIDE
4198d710 T _ZN12ZPressButtonC2EP7QWidgetPKcN12ZSkinService11WidgetClsIDE
4198dbfc T _ZN12ZPressButtonC2ERK7QPixmapRK7QStringP7QWidgetPKcN12ZSkinService11WidgetClsIDE
4198d500 T _ZN12ZPressButtonC2ERK7QStringP7QWidgetPKcN12ZSkinService11WidgetClsIDE
4198d138 T _ZN12ZPressButtonD0Ev
4198cfe0 T _ZN12ZPressButtonD1Ev
4198ce88 T _ZN12ZPressButtonD2Ev
41a59d5c T _ZN12ZProgressDlg10setMMAlignEN12ZMeterModule9AlignmentE
41a59ba8 T _ZN12ZProgressDlg11changeMeterEi
41a59a28 T _ZN12ZProgressDlg11changeMeterEii
41a59870 T _ZN12ZProgressDlg11changeMeterERK7QString
41a59568 T _ZN12ZProgressDlg11getProgressEv
41a59df8 T _ZN12ZProgressDlg11setProgressEi
41a59614 T _ZN12ZProgressDlg12setAutoCloseEb
41a595e4 T _ZN12ZProgressDlg12setAutoResetEb
41a59d18 T _ZN12ZProgressDlg13keyPressEventEP9QKeyEvent
41a597d0 T _ZN12ZProgressDlg14getMeterModuleEv
41a59d70 T _ZN12ZProgressDlg14setMMLabelTextERK7QString
41a961a0 T _ZN12ZProgressDlg16staticMetaObjectEv
41a59fd4 T _ZN12ZProgressDlg18setAutoPercentFlagEb
41a59ff0 T _ZN12ZProgressDlg18slotResizeAllChildEi
41a59534 T _ZN12ZProgressDlg20getProgressTotalStepEv
41a5959c T _ZN12ZProgressDlg20setProgressTotalStepEi
41a59644 T _ZN12ZProgressDlg5resetEv
41a596d4 T _ZN12ZProgressDlg6cancelEv
41a597dc T _ZN12ZProgressDlg8getMeterEv
41a9650c T _ZN12ZProgressDlg9cancelledEv
41a5942c T _ZN12ZProgressDlgC1EP7QWidgetPKcbj
41a59a80 T _ZN12ZProgressDlgC1ERK7QStringS2_iiP7QWidgetPKcbj
41a59bf8 T _ZN12ZProgressDlgC1ERK7QStringS2_iP7QWidgetPKcbj
41a59908 T _ZN12ZProgressDlgC1ERK7QStringS2_S2_P7QWidgetPKcbj
41a594b0 T _ZN12ZProgressDlgC2EP7QWidgetPKcbj
41a59b14 T _ZN12ZProgressDlgC2ERK7QStringS2_iiP7QWidgetPKcbj
41a59c88 T _ZN12ZProgressDlgC2ERK7QStringS2_iP7QWidgetPKcbj
41a59998 T _ZN12ZProgressDlgC2ERK7QStringS2_S2_P7QWidgetPKcbj
41a5918c T _ZN12ZProgressDlgD0Ev
41a5913c T _ZN12ZProgressDlgD1Ev
41a590ec T _ZN12ZProgressDlgD2Ev
419908d8 T _ZN12ZRadioButtonC1EP7QWidgetPKcN12ZSkinService11WidgetClsIDE
419907e0 T _ZN12ZRadioButtonC1ERK7QStringP7QWidgetPKcN12ZSkinService11WidgetClsIDE
4199093c T _ZN12ZRadioButtonC2EP7QWidgetPKcN12ZSkinService11WidgetClsIDE
4199085c T _ZN12ZRadioButtonC2ERK7QStringP7QWidgetPKcN12ZSkinService11WidgetClsIDE
41984f38 T _ZN12ZScrollPanel10setEnabledEb
419895d4 T _ZN12ZScrollPanel10setMarginsEiiii
41986684 T _ZN12ZScrollPanel10setPaletteERK8QPalette
41988f08 T _ZN12ZScrollPanel10setZBorderEP17ZWidgetBorderInfo
41988e90 T _ZN12ZScrollPanel10setZBorderERN9ZSkinBase13BorderPixmapsE
41988f80 T _ZN12ZScrollPanel10updateSkinEb
419866fc T _ZN12ZScrollPanel11eventFilterEP7QObjectP6QEvent
419879c0 T _ZN12ZScrollPanel11removeChildEP7ZWidget
41989804 T _ZN12ZScrollPanel11resizeEventEP12QResizeEvent
4198a038 T _ZN12ZScrollPanel11styleChangeER6QStyle
41986400 T _ZN12ZScrollPanel12drawContentsEP8QPainter
41985b94 T _ZN12ZScrollPanel12drawContentsEP8QPainteriiii
41985f74 T _ZN12ZScrollPanel13enableClipperEb
419857d0 T _ZN12ZScrollPanel13ensureVisibleEii
41985674 T _ZN12ZScrollPanel13ensureVisibleEiiii
41984f84 T _ZN12ZScrollPanel13keyPressEventEP9QKeyEvent
41a83af0 T _ZN12ZScrollPanel14initMetaObjectEv
419866b0 T _ZN12ZScrollPanel14resetFocusItemEb
41989638 T _ZN12ZScrollPanel14resizeContentsEii
41988464 T _ZN12ZScrollPanel14setContentsPosEii
419858e0 T _ZN12ZScrollPanel14updateContentsEiiii
419859c4 T _ZN12ZScrollPanel14updateContentsERK5QRect
419859f8 T _ZN12ZScrollPanel15repaintContentsEiiiib
41985ae4 T _ZN12ZScrollPanel15repaintContentsERK5QRectb
41984df0 T _ZN12ZScrollPanel15setHBarGeometryER10ZScrollBariiii
41984f20 T _ZN12ZScrollPanel15setResizePolicyENS_12ResizePolicyE
41984e28 T _ZN12ZScrollPanel15setVBarGeometryER10ZScrollBariiii
41a83b7c T _ZN12ZScrollPanel16contentsResizingEPS_ii
41986440 T _ZN12ZScrollPanel16setKeyScrollWrapEb
41a83428 T _ZN12ZScrollPanel16staticMetaObjectEv
4198856c T _ZN12ZScrollPanel16updateScrollBarsEv
419897d4 T _ZN12ZScrollPanel17setHScrollBarModeENS_13ScrollBarModeE
419897ec T _ZN12ZScrollPanel17setVScrollBarModeENS_13ScrollBarModeE
4198619c T _ZN12ZScrollPanel18contentsToViewportEiiRiS0_
41986100 T _ZN12ZScrollPanel18contentsToViewportERK6QPoint
41985b28 T _ZN12ZScrollPanel18drawContentsOffsetEP8QPainteriiiiii
4198a9d0 T _ZN12ZScrollPanel18focusNextPrevChildEb
41985084 T _ZN12ZScrollPanel18viewportPaintEventEP11QPaintEvent
419861e0 T _ZN12ZScrollPanel18viewportToContentsEiiRiS0_
41985328 T _ZN12ZScrollPanel18viewportToContentsERK6QPoint
41987418 T _ZN12ZScrollPanel19insertFormItemChildEP7ZWidgetiiS1_
41985324 T _ZN12ZScrollPanel19viewportResizeEventEP12QResizeEvent
41987d54 T _ZN12ZScrollPanel20slotContentsResizingEPS_ii
41985080 T _ZN12ZScrollPanel22contentsMouseMoveEventEP11QMouseEvent
41984f50 T _ZN12ZScrollPanel22setNestScrollPanelModeEb
419855c8 T _ZN12ZScrollPanel22viewportMouseMoveEventEP11QMouseEvent
41985074 T _ZN12ZScrollPanel23contentsMousePressEventEP11QMouseEvent
4198665c T _ZN12ZScrollPanel23setAutoExpandInNestModeEb
419853c4 T _ZN12ZScrollPanel23viewportMousePressEventEP11QMouseEvent
41985e00 T _ZN12ZScrollPanel24getBgImageForTransparentERb
41985078 T _ZN12ZScrollPanel25contentsMouseReleaseEventEP11QMouseEvent
41985470 T _ZN12ZScrollPanel25viewportMouseReleaseEventEP11QMouseEvent
4198507c T _ZN12ZScrollPanel29contentsMouseDoubleClickEventEP11QMouseEvent
4198551c T _ZN12ZScrollPanel29viewportMouseDoubleClickEventEP11QMouseEvent
41989c40 T _ZN12ZScrollPanel4showEv
41986af0 T _ZN12ZScrollPanel6childXEP7ZWidget
41986ac8 T _ZN12ZScrollPanel6childYEP7ZWidget
41984ee4 T _ZN12ZScrollPanel6resizeEii
41984ee8 T _ZN12ZScrollPanel6resizeERK5QSize
41986b18 T _ZN12ZScrollPanel8addChildEP7ZWidgetii
419857f0 T _ZN12ZScrollPanel8scrollByEii
41984f68 T _ZN12ZScrollPanel9moveChildEP7ZWidgetii
4198900c T _ZN12ZScrollPanelC1EP7QWidgetPKcjN12ZSkinService11WidgetClsIDE
419892f0 T _ZN12ZScrollPanelC2EP7QWidgetPKcjN12ZSkinService11WidgetClsIDE
4198a2cc T _ZN12ZScrollPanelD0Ev
4198a3d8 T _ZN12ZScrollPanelD1Ev
4198a4dc T _ZN12ZScrollPanelD2Ev
419fc5dc T _ZN12ZSettingItem10setSubItemEii7QStringb17SettingItemRegion
419fcaf8 T _ZN12ZSettingItem11stopMarqueeEv
419fc810 T _ZN12ZSettingItem12startMarqueeEv
419fc9c8 T _ZN12ZSettingItem13appendSubItemEi7QStringb
419fc898 T _ZN12ZSettingItem13appendSubItemEi7QStringb17SettingItemRegion
419fdb34 T _ZN12ZSettingItem13deleteSubItemEii
419fc6a8 T _ZN12ZSettingItem14getSubItemTextEii
419fc584 T _ZN12ZSettingItem15getSubItemCountEi
419fd234 T _ZN12ZSettingItem5paintEP8QPainter
419fc4ec T _ZN12ZSettingItem9getPixmapEi
419fc3c4 T _ZN12ZSettingItem9setPixmapEiRK7QPixmap
419fe0ac T _ZN12ZSettingItemC1EP8ZListBox7QString
419fe67c T _ZN12ZSettingItemC2EP8ZListBox7QString
419fdc18 T _ZN12ZSettingItemD0Ev
419fdcac T _ZN12ZSettingItemD1Ev
419fdd30 T _ZN12ZSettingItemD2Ev
41a1c5b8 T _ZN12ZSkinService10getAppNameEv
41a1c534 T _ZN12ZSkinService11getSkinFontERK9ZFontInfo
41a1abcc T _ZN12ZSkinService11getSkinNameERK7QString
41a1c790 T _ZN12ZSkinService14getThemeConfigEv
41a1c640 T _ZN12ZSkinService15getDeviceConfigEv
41a3705c T _ZN12ZSkinService15getSkinInfoListER5QListI8SkinInfoE
41a1b394 T _ZN12ZSkinService17getWidgetSkinInfoENS_11WidgetClsIDE
41a36e84 T _ZN12ZSkinService18updateAppThemeFileEv
41a1a00c T _ZN12ZSkinService19getAppThemeSkinFileERK7QString
41a1a768 T _ZN12ZSkinService20getAllSkinnablePropsEv
41a1a448 T _ZN12ZSkinService20getAppDeviceSkinFileERK7QString
41a1b164 T _ZN12ZSkinService20readNumEntryFromSkinER7ZConfigS1_RK7QStringS4_i
41a1caa8 T _ZN12ZSkinService20readNumEntryFromSkinERK7QStringS2_i
41a1b384 T _ZN12ZSkinService23getEntireSkinnablePropsEv
41a1b1d4 T _ZN12ZSkinService23readStringEntryFromSkinER7ZConfigS1_RK7QStringS4_S4_
41a1c8f4 T _ZN12ZSkinService23readStringEntryFromSkinERK7QStringS2_S2_
41ad2778 B _ZN12ZSkinService3refE
41ad2784 B _ZN12ZSkinService5themeE
41ad2780 B _ZN12ZSkinService6deviceE
419d5d10 T _ZN12ZSoftKeyData10getSoftBtnEv
419d5ca0 T _ZN12ZSoftKeyData8getPopupEv
41a41e44 T _ZN12ZTimeControl12setStartTimeE5QTime
41a41db0 T _ZN12ZTimeControl12setTimeValueE5QTime
41a41cd4 T _ZN12ZTimeControl7getTimeEv
41a41d8c T _ZN12ZTimeControl9getPickerEv
41a43574 T _ZN12ZTimeControlC1E5QTimeRK7QStringN7ZButton13TitlePositionEP7QWidgetPKcj
41a436ec T _ZN12ZTimeControlC1E5QTimeS0_S0_RK7QStringN7ZButton13TitlePositionEP7QWidgetPKcj
41a43464 T _ZN12ZTimeControlC1EP7QWidgetPKcj
41a43630 T _ZN12ZTimeControlC2E5QTimeRK7QStringN7ZButton13TitlePositionEP7QWidgetPKcj
41a437b4 T _ZN12ZTimeControlC2E5QTimeS0_S0_RK7QStringN7ZButton13TitlePositionEP7QWidgetPKcj
41a434ec T _ZN12ZTimeControlC2EP7QWidgetPKcj
4193a9b4 T _ZN13AM_ActionData10setOpenAppE5QUuid
4193a990 T _ZN13AM_ActionData15setAppLockCheckERKb
4193b0c8 T _ZN13AM_ActionData4initEv
4193c3a0 T _ZN13AM_ActionData8setValueERK7QStringi
4193c334 T _ZN13AM_ActionData8setValueERK7QStringS2_
4193a8c0 T _ZN13AM_ActionData9setActionERK7QString
4193a904 T _ZN13AM_ActionData9setObjectERK7QString
4193b294 T _ZN13AM_ActionDataC1Ev
4193b2c8 T _ZN13AM_ActionDataC2Ev
4193ad54 T _ZN13AM_ActionDataD1Ev
4193ad90 T _ZN13AM_ActionDataD2Ev
41922aa8 T _ZN13KbEditContext17getFieldInputLangEi
41922c48 T _ZN13KbEditContext17getFieldInputModeEi
41922918 T _ZN13KbEditContext19getDefaultInputLangEv
41a5ffd8 T _ZN13KbModesDialog16getSelectedIndexEv
         U _ZN13QFontDatabase14qwsAddDiskFontEP9QDiskFont
         U _ZN13QImageDecoder6decodeEPKhi
         U _ZN13QImageDecoderC1EP14QImageConsumer
         U _ZN13QImageDecoderD1Ev
         U _ZN13QIntValidatorC1EiiP7QWidgetPKc
         U _ZN13QRangeControl10stepChangeEv
         U _ZN13QRangeControl12subtractLineEv
         U _ZN13QRangeControl12subtractPageEv
         U _ZN13QRangeControl7addLineEv
         U _ZN13QRangeControl7addPageEv
         U _ZN13QRangeControl8setRangeEii
         U _ZN13QRangeControl8setStepsEii
         U _ZN13QRangeControl8setValueEi
         U _ZN13QRangeControlC1Ev
         U _ZN13QRangeControlC2Eiiiii
         U _ZN13QRangeControlC2Ev
         U _ZN13QServerSocket9setSocketEi
         U _ZN13QWindowsStyle10drawButtonEP8QPainteriiiiRK11QColorGroupbPK6QBrush
         U _ZN13QWindowsStyle10drawSliderEP8QPainteriiiiRK11QColorGroupN2Qt11OrientationEbb
         U _ZN13QWindowsStyle11drawTabMaskEP8QPainterPK7QTabBarP4QTabb
         U _ZN13QWindowsStyle12drawSplitterEP8QPainteriiiiRK11QColorGroupN2Qt11OrientationE
         U _ZN13QWindowsStyle13drawCheckMarkEP8QPainteriiiiRK11QColorGroupbb
         U _ZN13QWindowsStyle13tabbarMetricsEPK7QTabBarRiS3_S3_
         U _ZN13QWindowsStyle14drawPopupPanelEP8QPainteriiiiRK11QColorGroupiPK6QBrush
         U _ZN13QWindowsStyle14drawPushButtonEP11QPushButtonP8QPainter
         U _ZN13QWindowsStyle14drawSliderMaskEP8QPainteriiiiN2Qt11OrientationEbb
         U _ZN13QWindowsStyle14getButtonShiftERiS0_
         U _ZN13QWindowsStyle15comboButtonRectEiiii
         U _ZN13QWindowsStyle15drawBevelButtonEP8QPainteriiiiRK11QColorGroupbPK6QBrush
         U _ZN13QWindowsStyle15drawComboButtonEP8QPainteriiiiRK11QColorGroupbbbPK6QBrush
         U _ZN13QWindowsStyle15polishPopupMenuEP10QPopupMenu
         U _ZN13QWindowsStyle16drawSliderGrooveEP8QPainteriiiiRK11QColorGroupiN2Qt11OrientationE
         U _ZN13QWindowsStyle16staticMetaObjectEv
         U _ZN13QWindowsStyle17drawPopupMenuItemEP8QPainterbiiP9QMenuItemRK8QPalettebbiiii
         U _ZN13QWindowsStyle19popupMenuItemHeightEbP9QMenuItemRK12QFontMetrics
         U _ZN13QWindowsStyle20comboButtonFocusRectEiiii
         U _ZN13QWindowsStyle23extraPopupMenuItemWidthEbiP9QMenuItemRK12QFontMetrics
         U _ZN13QWindowsStyle26drawExclusiveIndicatorMaskEP8QPainteriiiib
         U _ZN13QWindowsStyle7drawTabEP8QPainterPK7QTabBarP4QTabb
         U _ZN13QWindowsStyle9drawArrowEP8QPainterN2Qt9ArrowTypeEbiiiiRK11QColorGroupbPK6QBrush
         U _ZN13QWindowsStyle9drawPanelEP8QPainteriiiiRK11QColorGroupbiPK6QBrush
         U _ZN13QWindowsStyleC2Ev
         U _ZN13QWindowsStyleD2Ev
41883478 T _ZN13SETUP_Utility10getFlexBitEtRb
4189364c T _ZN13SETUP_Utility10getTimeoutE15ENUM_TIMER_TYPERi
4188a15c T _ZN13SETUP_Utility10getTTYTypeERi
4188864c T _ZN13SETUP_Utility10md5EncryptEPhtPc
41893068 T _ZN13SETUP_Utility10setTimeoutE15ENUM_TIMER_TYPEi
41898264 T _ZN13SETUP_Utility11dcSetupInitEv
41889548 T _ZN13SETUP_Utility11getContrastERi
41891304 T _ZN13SETUP_Utility11getScrSaverER7QString
41889690 T _ZN13SETUP_Utility11setContrastEi
4189e844 T _ZN13SETUP_Utility11setScrSaverERK7QString
4188cc30 T _ZN13SETUP_Utility12getAlertToneE15ENUM_ALERT_TYPER7QString
4188fad8 T _ZN13SETUP_Utility12getAlertToneEi15ENUM_ALERT_TYPER7QString
41887cbc T _ZN13SETUP_Utility12getUSBStatusERi
41891224 T _ZN13SETUP_Utility12getWallpaperER7QString
4189091c T _ZN13SETUP_Utility12isOSSLicenseE7QString
41887bb8 T _ZN13SETUP_Utility12setUSBStatusEi
4189f3f0 T _ZN13SETUP_Utility12setWallPaperERK7QString
4188c264 T _ZN13SETUP_Utility13getAlertStyleEiR16ENUM_ALERT_STYLE
418859f0 T _ZN13SETUP_Utility13getAlertStyleER16ENUM_ALERT_STYLE
4188d1e0 T _ZN13SETUP_Utility13getSliderToneER7QStringS1_
41885f24 T _ZN13SETUP_Utility13setAsRingToneE7QString
41899acc T _ZN13SETUP_Utility14getProfileIconEiR7QString
418a5654 T _ZN13SETUP_Utility14getProfileListER4QMapIi14PROFILE_DATA_SEb
418a7134 T _ZN13SETUP_Utility14getProfileListER4QMapIi7QStringEb
4188bcac T _ZN13SETUP_Utility14getProfileNameEiR7QStringb
4188c218 T _ZN13SETUP_Utility14getProfileNameER7QStringb
4188c8dc T _ZN13SETUP_Utility14getSoundVolumeE17ENUM_SOUND_TYPE_ERi
4188f6cc T _ZN13SETUP_Utility14getSoundVolumeEi17ENUM_SOUND_TYPE_ERi
418892bc T _ZN13SETUP_Utility14getStatusLightERb
418859a4 T _ZN13SETUP_Utility14setAsWallpaperE7QString
41893b40 T _ZN13SETUP_Utility14setSoundVolumeE17ENUM_SOUND_TYPE_Ei
41889404 T _ZN13SETUP_Utility14setStatusLightEb
41893128 T _ZN13SETUP_Utility15getDisplayTimerEv
41888da8 T _ZN13SETUP_Utility15getHapticStatusERb
418a242c T _ZN13SETUP_Utility15getInvLProfilesE11ENUM_INVL_T
41885520 T _ZN13SETUP_Utility15getJavaHeapSizeERi
41893724 T _ZN13SETUP_Utility15getLcdSleepTimeERi
4188da10 T _ZN13SETUP_Utility15getLightPatternE15ENUM_ALERT_TYPER7QString
4189e068 T _ZN13SETUP_Utility15getPowerUpImageER7QString
418a493c T _ZN13SETUP_Utility15setAirplaneModeEb
41892f64 T _ZN13SETUP_Utility15setDisplayTimerEj
41888eec T _ZN13SETUP_Utility15setHapticStatusEb
4189b170 T _ZN13SETUP_Utility15setLanguageTypeE7QString
418a22d4 T _ZN13SETUP_Utility15setSilentStatusEb
418ab4ac T _ZN13SETUP_Utility15setupInitializeEv
418869c0 T _ZN13SETUP_Utility16defaultSoundFileEv
41885c48 T _ZN13SETUP_Utility16getActiveProfileERi
418a69d0 T _ZN13SETUP_Utility16getAllProfileIDsER10QValueListIiE
4188b9b8 T _ZN13SETUP_Utility16getBackupProfileERi
41887eb4 T _ZN13SETUP_Utility16getBlendingColorERj
4188cb38 T _ZN13SETUP_Utility16getSpeakerVolumeERi
4188f6a4 T _ZN13SETUP_Utility16isAirplaneModeOnEv
418a5640 T _ZN13SETUP_Utility16setActiveProfileE24ENUM_PRELOADED_PROFILE_Eb
418a5198 T _ZN13SETUP_Utility16setActiveProfileEib
4188f034 T _ZN13SETUP_Utility16setByThemeStatusE15ENUM_ALERT_TYPE
41888c08 T _ZN13SETUP_Utility16setPhoneLockCodeERK7QString
4188515c T _ZN13SETUP_Utility16setPhoneLockFlagEb
4188eab4 T _ZN13SETUP_Utility16setSpeakerVolumeEi
418a2370 T _ZN13SETUP_Utility16setVibrateStatusEb
41888954 T _ZN13SETUP_Utility16verifyUnlockCodeERK7QStringRb
418a78b0 T _ZN13SETUP_Utility17getAlertStyleListER4QMapIi17ALERTSTYLE_DATA_SEb
4188c5c8 T _ZN13SETUP_Utility17getAlertStyleNameER7QStringb
41889ed4 T _ZN13SETUP_Utility17getAutoAnswerTimeERi
41885800 T _ZN13SETUP_Utility17getBackLightValueERi
41885614 T _ZN13SETUP_Utility17getJavaOTATimeoutERi
4188b07c T _ZN13SETUP_Utility17getJavaSystemInfoER13JAVA_SYSTEM_S
4189dacc T _ZN13SETUP_Utility17getPowerDownImageER7QString
4188d220 T _ZN13SETUP_Utility17getVibratePatternE15ENUM_ALERT_TYPER22ENUM_VIBRATE_PATTERN_E
418900e8 T _ZN13SETUP_Utility17getVibratePatternEi15ENUM_ALERT_TYPER22ENUM_VIBRATE_PATTERN_E
41883674 T _ZN13SETUP_Utility17getVRTalkingPhoneERb
41896b1c T _ZN13SETUP_Utility17setAutoAnswerTimeEi
41885844 T _ZN13SETUP_Utility17setBacklightValueEv
4189ef3c T _ZN13SETUP_Utility18defaultPictureFileEv
41891d58 T _ZN13SETUP_Utility18getActiveProfileIDERi
4189333c T _ZN13SETUP_Utility18getDimDisplayTimerEv
4188368c T _ZN13SETUP_Utility18getImsiChangedFlagEv
4188a018 T _ZN13SETUP_Utility18getVoiceDialStatusERb
41883874 T _ZN13SETUP_Utility18isFeatureAvailableEt
4188eba4 T _ZN13SETUP_Utility18isSetByThemeStatusE15ENUM_ALERT_TYPE
418968fc T _ZN13SETUP_Utility18setVoiceDialStatusEb
418886a0 T _ZN13SETUP_Utility18verifySecurityCodeERK7QStringRb
41891d78 T _ZN13SETUP_Utility19getActiveAlertStyleER16ENUM_ALERT_STYLE
41893438 T _ZN13SETUP_Utility19getScreensaverTimerEv
4188e6d4 T _ZN13SETUP_Utility19isSimpleProfileViewEv
418a0c18 T _ZN13SETUP_Utility19setActiveAlertStyleE16ENUM_ALERT_STYLE
41889030 T _ZN13SETUP_Utility20getLcdBacklightColorERi
418913e4 T _ZN13SETUP_Utility20getMaxFileNameLengthE31ENUM_THEME_PROFILE_ELEMENT_TYPE
41884da0 T _ZN13SETUP_Utility20getPhoneAutoLockTimeERi
41892d44 T _ZN13SETUP_Utility20getScreensaverStatusEv
4189f5d4 T _ZN13SETUP_Utility20getWallpaperFileNameER7QString
418a4d64 T _ZN13SETUP_Utility20restoreActiveProfileEv
41889178 T _ZN13SETUP_Utility20setLcdBacklightColorEi
41885058 T _ZN13SETUP_Utility20setPhoneAutoLockTimeE22SETUP_PHONELOCK_TYPE_T
41892e40 T _ZN13SETUP_Utility20setScreensaverStatusEb
41885708 T _ZN13SETUP_Utility21getBackLightValueToolER17SETUP_SET_ManagerRi
41887fa8 T _ZN13SETUP_Utility21getBlendingPercentageERi
41890df8 T _ZN13SETUP_Utility21getMaxBrightnessRangeERi
41890eec T _ZN13SETUP_Utility21getMinBrightnessRangeERi
4189c020 T _ZN13SETUP_Utility21getProfileFlexOffListEv
41893850 T _ZN13SETUP_Utility21getSystemSetupManagerEv
4188a3e4 T _ZN13SETUP_Utility21getTalkingPhoneStatusE30ENUM_TALKINGPHONE_READOUT_TYPERi
418a55f8 T _ZN13SETUP_Utility21setActiveProfileByATCEi
4188aaec T _ZN13SETUP_Utility21setTalkingPhoneStatusE30ENUM_TALKINGPHONE_READOUT_TYPEb
418867a8 T _ZN13SETUP_Utility22getBrowserFeatureValueE23BROWSER_FEATURE_VALUE_TRj
4188ae44 T _ZN13SETUP_Utility22getChargingLightStatusERb
4188542c T _ZN13SETUP_Utility22getMinUnlockCodeLengthERj
41884ffc T _ZN13SETUP_Utility22getPhoneAutoLockStatusERb
4188b6d0 T _ZN13SETUP_Utility22getPreviouseAlertStyleER16ENUM_ALERT_STYLE
4188af8c T _ZN13SETUP_Utility22setChargingLightStatusEb
4188533c T _ZN13SETUP_Utility22setMinUnlockCodeLengthEj
4189be94 T _ZN13SETUP_Utility22verifyAutoLanguageCodeEi
4188d9dc T _ZN13SETUP_Utility23defaultLightPatternFileEv
418929a0 T _ZN13SETUP_Utility23getProximitySoundStatusEv
4188524c T _ZN13SETUP_Utility23setPhoneLockTimeOutFlagEb
41892a9c T _ZN13SETUP_Utility23setProximitySoundStatusEb
41891c78 T _ZN13SETUP_Utility24getActiveProfileRingToneE15ENUM_ALERT_TYPER7QString
4189fe5c T _ZN13SETUP_Utility24getActiveProfileRingToneEP29STRU_IATC_PROFILE_RING_TONE_D
41893730 T _ZN13SETUP_Utility24getBackLightDimIntensityEv
41887dc4 T _ZN13SETUP_Utility24getWallpaperTransparencyERb
418a22b4 T _ZN13SETUP_Utility24setActiveAlertStyleByATCE16ENUM_ALERT_STYLE
418913ec T _ZN13SETUP_Utility24setActiveProfielRingToneE15ENUM_ALERT_TYPERK7QString
41888278 T _ZN13SETUP_Utility25getInstantPhoneLockStatusERb
418938c8 T _ZN13SETUP_Utility25getMaxBrightnessRangeToolER17SETUP_SET_ManagerRi
418939a4 T _ZN13SETUP_Utility25getMinBrightnessRangeToolER17SETUP_SET_ManagerRi
4188b3e8 T _ZN13SETUP_Utility25getPreviouseActiveProfileERi
41893a7c T _ZN13SETUP_Utility25getSetupSystemInformationER24SETUP_SYSTEM_INFORMATION
4188809c T _ZN13SETUP_Utility25setInstantPhoneLockStatusEb
418911e0 T _ZN13SETUP_Utility26getBackLightInLockDurationEv
4188e28c T _ZN13SETUP_Utility26getPowerUpDownLightPatternER7QString
418882bc T _ZN13SETUP_Utility26getServerAddrByInvLProfileE11ENUM_INVL_T7QString
41883630 T _ZN13SETUP_Utility26getUserDefinedLanguageTypeER7QString
418910bc T _ZN13SETUP_Utility27getBackLightInLockIntensityEv
41892b8c T _ZN13SETUP_Utility27getMissedNotificationStatusERi
418881a0 T _ZN13SETUP_Utility29getInstantPhoneLockStatusToolER17SETUP_SET_ManagerRb
41891100 T _ZN13SETUP_Utility30getBackLightInLockDurationToolER17SETUP_SET_Manager
418834c4 T _ZN13SETUP_Utility30getUserDefinedLanguageTypeToolER17SETUP_SET_ManagerR7QString
41890fdc T _ZN13SETUP_Utility31getBackLightInLockIntensityToolER17SETUP_SET_Manager
418897d4 T _ZN13SETUP_Utility31getPersonalDictionaryLockStatusERb
41889918 T _ZN13SETUP_Utility31setPersonalDictionaryLockStatusEb
41889a5c T _ZN13SETUP_Utility33getPersonalDictionaryLockPasswordER7QString
41889c3c T _ZN13SETUP_Utility33setPersonalDictionaryLockPasswordE7QString
41889dcc T _ZN13SETUP_Utility36verifyPersonalDictionaryLockPasswordE7QString
4188346c T _ZN13SETUP_UtilityC1Ev
41883468 T _ZN13SETUP_UtilityC2Ev
41883474 T _ZN13SETUP_UtilityD1Ev
41883470 T _ZN13SETUP_UtilityD2Ev
4185c440 T _ZN13UTIL_DateTime12dateToStringERK5QDateNS_10DateFormatENS_12DateAccuracyE
4185d98c T _ZN13UTIL_DateTime12dateToStringERK5QDateNS_12DateAccuracyE
4185c1d4 T _ZN13UTIL_DateTime12getMonthNameEi
4185cfdc T _ZN13UTIL_DateTime12timeToStringERK5QTimeNS_10TimeFormatENS_12TimeAccuracyE
4185ddfc T _ZN13UTIL_DateTime12timeToStringERK5QTimeNS_12TimeAccuracyE
4185f568 T _ZN13UTIL_DateTime13getCurrentUTCEv
4185d828 T _ZN13UTIL_DateTime13getDateFormatEv
4185dc98 T _ZN13UTIL_DateTime13getTimeFormatEv
4185fa18 T _ZN13UTIL_DateTime13setDateFormatENS_10DateFormatE
4185f730 T _ZN13UTIL_DateTime13setTimeFormatENS_10TimeFormatE
4185be4c T _ZN13UTIL_DateTime14getWeekdayNameEi
41a6fca0 T _ZN13UTIL_DateTime14initMetaObjectEv
4185e424 T _ZN13UTIL_DateTime14setTimeZoneEnvEv
4185df3c T _ZN13UTIL_DateTime16getLocalTimeZoneERiS0_S0_RdR7QStringS3_
41a6fbc0 T _ZN13UTIL_DateTime16staticMetaObjectEv
4185d9bc T _ZN13UTIL_DateTime17getDateTimeFormatEv
4185bfc0 T _ZN13UTIL_DateTime17getMonthShortNameEi
4185de48 T _ZN13UTIL_DateTime17slotFormatChangedERK8QCStringRK6QArrayIcE
4185f610 T _ZN13UTIL_DateTime17updateTimeZoneEnvEv
4185e1bc T _ZN13UTIL_DateTime20getTZRuleFromDstRuleERK7QString
4185de2c T _ZN13UTIL_DateTime23isDateTimeChangeAllowedEv
41a6fb1c T _ZN13UTIL_DateTime2trEPKc
41a6fb70 T _ZN13UTIL_DateTime2trEPKcS1_
41ad27b4 B _ZN13UTIL_DateTime7metaObjE
4185def4 T _ZN13UTIL_DateTime8toStringERK5QDate
4185df18 T _ZN13UTIL_DateTime8toStringERK5QTime
4185fd00 T _ZN13UTIL_DateTimeC1EP7QObjectPKc
4185fdbc T _ZN13UTIL_DateTimeC2EP7QObjectPKc
4185be08 T _ZN13UTIL_DateTimeD0Ev
4185bdcc T _ZN13UTIL_DateTimeD1Ev
4185bd90 T _ZN13UTIL_DateTimeD2Ev
41aa0a2c R _ZN13UTIL_Language11lanMapTableE
418b0834 T _ZN13UTIL_Language13isRtlLanguageERK7QString
418b097c T _ZN13UTIL_Language15getLangCodeListEv
418b1780 T _ZN13UTIL_Language15getLanguageTypeEv
418b0384 T _ZN13UTIL_Language17getISO639LangCodeE7QString
418b02a0 T _ZN13UTIL_Language18getLanguageIdByMccEi
418afe20 T _ZN13UTIL_Language19getSystemLanguageIdEv
418b2174 T _ZN13UTIL_Language19isSupportedLanguageE7QString
418b02fc T _ZN13UTIL_Language20getLanguageCodeByMccEi
418b1b50 T _ZN13UTIL_Language21getLanguageCodeByEFlpEiPh
418afcb0 T _ZN13UTIL_Language21getSystemLanguageCodeEv
418b04b0 T _ZN13UTIL_Language22getLanguageCodeByLanIdEi
418b0440 T _ZN13UTIL_Language22getLanguageIdByLanCodeE7QString
418b06c8 T _ZN13UTIL_Language23getLanguageCodeByISO639Et
418b25b4 T _ZN13UTIL_Language23getLanguageCodeByLangIdENS_10LanguageIdE
418b0538 T _ZN13UTIL_Language23getLanguageIdByDialCodeEi
418b0230 T _ZN13UTIL_Language23getLanguageIdByLangCodeE7QString
418b0618 T _ZN13UTIL_Language23getLanguageIdByLanIndexEi
418b0670 T _ZN13UTIL_Language23getLanguageIndexByLanIdEi
418b01e0 T _ZN13UTIL_Language23getSystemLanguageStringEv
418b0590 T _ZN13UTIL_Language25getLanguageCodeByDialCodeEi
418afec0 T _ZN13UTIL_Language31getLanguageStringByLanguageCodeERK7QString
418676c0 T _ZN13UTIL_MimeType13isVoiceRecordE7QString
41866484 T _ZN13UTIL_MimeType26queryMpSupportedExtensionsER11QStringListNS_11MIME_TYPE_TE
41867e0c T _ZN13UTIL_MimeType7isAudioE7QString
41867b88 T _ZN13UTIL_MimeType7isVideoE7QString
4186745c T _ZN13UTIL_MimeType8isVectorE7QString
41867924 T _ZN13UTIL_MimeType9isPictureE7QString
41ad22f4 B _ZN13UTIL_UILocker10pUIBlockerE
4187808c T _ZN13UTIL_UILocker11eventFilterEP7QObjectP6QEvent
41878054 T _ZN13UTIL_UILocker12stopUILockerEv
41877f10 T _ZN13UTIL_UILocker13startUILockerEP7QWidgeti
41a6ff50 T _ZN13UTIL_UILocker14initMetaObjectEv
41877fec T _ZN13UTIL_UILocker15slotResetUILockEv
41a6fe70 T _ZN13UTIL_UILocker16staticMetaObjectEv
41a6fdcc T _ZN13UTIL_UILocker2trEPKc
41a6fe20 T _ZN13UTIL_UILocker2trEPKcS1_
41ad27bc B _ZN13UTIL_UILocker7metaObjE
41877ebc T _ZN13UTIL_UILockerC1Ev
41877e68 T _ZN13UTIL_UILockerC2Ev
41a70094 W _ZN13UTIL_UILockerD0Ev
41a70058 W _ZN13UTIL_UILockerD1Ev
419ab730 T _ZN13ZCalendarGrid13getWeekDayStrEi
419bad84 T _ZN13ZColorControl12getColorNameE6QColor
419bc8bc T _ZN13ZColorControl14getCurrentFontER5QFontR6QColorNS_8ItemTypeE
419bad34 T _ZN13ZColorControl8getColorEv
418edff8 T _ZN13ZDirectPixmap4bitsEv
418edd8c T _ZN13ZDirectPixmapC1Eiii
418edd48 T _ZN13ZDirectPixmapC2Eiii
419dda24 T _ZN13ZIconViewItem10setEnabledEb
419dd970 T _ZN13ZIconViewItem11setDrmImageERK7QPixmap
419dbf08 T _ZN13ZIconViewItem11setItemRectERK5QRect
419db994 T _ZN13ZIconViewItem11setSelectedEb
419e1db8 T _ZN13ZIconViewItem11setSelectedEbb
419e1f0c T _ZN13ZIconViewItem11setTextRectERK5QRect
419e1f10 T _ZN13ZIconViewItem13setPixmapRectERK5QRect
419db9b8 T _ZN13ZIconViewItem13setSelectableEb
419dc1ac T _ZN13ZIconViewItem15getReservedDataEv
419dc1b4 T _ZN13ZIconViewItem15setReservedDataEj
419dbf0c T _ZN13ZIconViewItem16showDrmIndicatorEb
419dc240 T _ZN13ZIconViewItem18setPixmapRectToMaxEb
419da2ec T _ZN13ZIconViewItem4initEPS_
419e519c T _ZN13ZIconViewItem4moveEii
419dba84 T _ZN13ZIconViewItem4moveERK6QPoint
419e516c T _ZN13ZIconViewItem6moveByEii
419dbaa4 T _ZN13ZIconViewItem6moveByERK6QPoint
419db55c T _ZN13ZIconViewItem6setKeyERK7QString
419db9ec T _ZN13ZIconViewItem7repaintEv
419db410 T _ZN13ZIconViewItem7setTextERK7QString
419db6d8 T _ZN13ZIconViewItem7setTextERK7QStringbb
419db34c T _ZN13ZIconViewItem7setTypeENS_8MARKTYPEEb
419dc238 T _ZN13ZIconViewItem7setViewEP9ZIconView
419e4f5c T _ZN13ZIconViewItem8calcRectEv
419e5208 W _ZN13ZIconViewItem9paintItemEP8QPainterRK11QColorGroup
419e0f04 T _ZN13ZIconViewItem9paintItemER8QPainter
419db3cc T _ZN13ZIconViewItem9setActiveEv
419db5a0 T _ZN13ZIconViewItem9setPixmapERK7QPixmap
419db74c T _ZN13ZIconViewItem9setPixmapERK7QPixmapbb
419dadf0 T _ZN13ZIconViewItemC1EP9ZIconView
419daba8 T _ZN13ZIconViewItemC1EP9ZIconViewPS_
419da800 T _ZN13ZIconViewItemC1EP9ZIconViewPS_RK7QString
419da400 T _ZN13ZIconViewItemC1EP9ZIconViewPS_RK7QStringRK7QPixmap
419da9e0 T _ZN13ZIconViewItemC1EP9ZIconViewRK7QString
419da5f8 T _ZN13ZIconViewItemC1EP9ZIconViewRK7QStringRK7QPixmap
419da1c0 T _ZN13ZIconViewItemC1Ev
419daf08 T _ZN13ZIconViewItemC2EP9ZIconView
419daccc T _ZN13ZIconViewItemC2EP9ZIconViewPS_
419da8f0 T _ZN13ZIconViewItemC2EP9ZIconViewPS_RK7QString
419da4fc T _ZN13ZIconViewItemC2EP9ZIconViewPS_RK7QStringRK7QPixmap
419daac4 T _ZN13ZIconViewItemC2EP9ZIconViewRK7QString
419da6fc T _ZN13ZIconViewItemC2EP9ZIconViewRK7QStringRK7QPixmap
419da0b0 T _ZN13ZIconViewItemC2Ev
419db238 T _ZN13ZIconViewItemD0Ev
419db12c T _ZN13ZIconViewItemD1Ev
419db020 T _ZN13ZIconViewItemD2Ev
41a0e920 T _ZN13ZKbMainWidget10getSoftKeyEb
41a0eb40 T _ZN13ZKbMainWidget10headerSizeEv
41a0ebc4 T _ZN13ZKbMainWidget10HideHeaderEv
41a0e7a8 T _ZN13ZKbMainWidget10setSoftKeyEP8ZSoftKey
41a0e9f4 T _ZN13ZKbMainWidget11eventFilterEP7QObjectP6QEvent
41a0e040 T _ZN13ZKbMainWidget11getAppTitleEv
41a0ebf0 T _ZN13ZKbMainWidget11setAppTitleERK7QString
41a0eb14 T _ZN13ZKbMainWidget12updateHeaderEv
41a0ea08 T _ZN13ZKbMainWidget13keyPressEventEP9QKeyEvent
41a0e4c8 T _ZN13ZKbMainWidget13setHeaderTypeEN7ZHeader11HEADER_TYPEE
41a0e9dc T _ZN13ZKbMainWidget14getAppInfoAreaEv
41a90d88 T _ZN13ZKbMainWidget14initMetaObjectEv
41a0e980 T _ZN13ZKbMainWidget14setAppInfoAreaEP12ZAppInfoArea
41a0ea24 T _ZN13ZKbMainWidget14slotAppMessageERK8QCStringRK6QArrayIcE
41a90e14 T _ZN13ZKbMainWidget15clearKeyClickedEv
41a0e9e0 T _ZN13ZKbMainWidget15getLRSBaseIndexEv
41a90bcc T _ZN13ZKbMainWidget16staticMetaObjectEv
41a90e38 T _ZN13ZKbMainWidget17serverInitializedEv
41a0e614 T _ZN13ZKbMainWidget18getMainWidgetTitleEv
41a0eaf8 T _ZN13ZKbMainWidget18isTitleTruncEnableEv
41a0e4fc T _ZN13ZKbMainWidget18setMainWidgetTitleERK7QString
41a0eadc T _ZN13ZKbMainWidget19setTitleTruncEnableEb
41a0e6fc T _ZN13ZKbMainWidget22getMainWidgetTitleIconEv
41a0e6cc T _ZN13ZKbMainWidget22setMainWidgetTitleIconERK7QPixmap
41a0e768 T _ZN13ZKbMainWidget25slotFullScreenModeChangedEb
41a90b28 T _ZN13ZKbMainWidget2trEPKc
41a90b7c T _ZN13ZKbMainWidget2trEPKcS1_
41a0e074 T _ZN13ZKbMainWidget4initEN7ZHeader11HEADER_TYPEE
41a0e754 T _ZN13ZKbMainWidget5eventEP6QEvent
41ad2ab8 B _ZN13ZKbMainWidget7metaObjE
41a0ebbc T _ZN13ZKbMainWidget9getHeaderEv
41a0e1c0 T _ZN13ZKbMainWidgetC1EN7ZHeader11HEADER_TYPEEP7QWidgetPKcj
41a0e290 T _ZN13ZKbMainWidgetC1EP7QWidgetPKcj
41a0e52c T _ZN13ZKbMainWidgetC1ERK7QStringP7QWidgetPKcj
41a0e228 T _ZN13ZKbMainWidgetC2EN7ZHeader11HEADER_TYPEEP7QWidgetPKcj
41a0e300 T _ZN13ZKbMainWidgetC2EP7QWidgetPKcj
41a0e5a0 T _ZN13ZKbMainWidgetC2ERK7QStringP7QWidgetPKcj
41a0e450 T _ZN13ZKbMainWidgetD0Ev
41a0e3e0 T _ZN13ZKbMainWidgetD1Ev
41a0e370 T _ZN13ZKbMainWidgetD2Ev
419a7308 T _ZN13ZNavTabWidget10paintEventEP11QPaintEvent
419a750c T _ZN13ZNavTabWidget10setEnabledEb
419a74e8 T _ZN13ZNavTabWidget10setPaletteERK8QPalette
419a71c0 T _ZN13ZNavTabWidget10updateMaskEv
419a5f90 T _ZN13ZNavTabWidget10updateSkinEb
419a728c T _ZN13ZNavTabWidget11eventFilterEP7QObjectP6QEvent
419a68ac T _ZN13ZNavTabWidget11resizeEventEP12QResizeEvent
419a7194 T _ZN13ZNavTabWidget11styleChangeER6QStyle
419a5fd0 T _ZN13ZNavTabWidget13setTabEnabledEP7QWidgetb
419a61a8 T _ZN13ZNavTabWidget14setCurrentPageEi
419a7120 T _ZN13ZNavTabWidget14setTabPositionENS_11TabPositionE
41a856f4 T _ZN13ZNavTabWidget16staticMetaObjectEv
419a5e28 T _ZN13ZNavTabWidget21stopNextWhenKeyRepeatEb
419a6d94 T _ZN13ZNavTabWidget6addTabEP7QWidgetP7ZNavTab
419a6ee4 T _ZN13ZNavTabWidget6addTabEP7QWidgetRK7QString
419a6df8 T _ZN13ZNavTabWidget6addTabEP7QWidgetRK8QIconSetRK7QString
419a6038 T _ZN13ZNavTabWidget8showPageEP7QWidget
419a6a5c T _ZN13ZNavTabWidget9changeTabEP7QWidgetRK7QString
419a6944 T _ZN13ZNavTabWidget9changeTabEP7QWidgetRK8QIconSetRK7QString
419a710c T _ZN13ZNavTabWidget9showEventEP10QShowEvent
419a6794 T _ZN13ZNavTabWidgetC1EibbP7QWidgetPKcN12ZSkinService11WidgetClsIDE
419a669c T _ZN13ZNavTabWidgetC1EP7QWidgetPKcN12ZSkinService11WidgetClsIDE
419a6820 T _ZN13ZNavTabWidgetC2EibbP7QWidgetPKcN12ZSkinService11WidgetClsIDE
419a6718 T _ZN13ZNavTabWidgetC2EP7QWidgetPKcN12ZSkinService11WidgetClsIDE
419a5f24 T _ZN13ZNavTabWidgetD0Ev
419a5ec0 T _ZN13ZNavTabWidgetD1Ev
419a5e5c T _ZN13ZNavTabWidgetD2Ev
41a5d174 T _ZN13ZNumPickerDlg11getNumValueEv
41a5d168 T _ZN13ZNumPickerDlg12getNumModuleEv
41a5d1a8 T _ZN13ZNumPickerDlg13keyPressEventEP9QKeyEvent
41a97a68 T _ZN13ZNumPickerDlg14initMetaObjectEv
41a978f8 T _ZN13ZNumPickerDlg16staticMetaObjectEv
41a5d1c0 T _ZN13ZNumPickerDlg18slotResizeAllChildEi
41a5d088 T _ZN13ZNumPickerDlgC1EiP7QWidgetPKcj
41a5d0f8 T _ZN13ZNumPickerDlgC2EiP7QWidgetPKcj
41a5ce74 T _ZN13ZNumPickerDlgD0Ev
41a5ce18 T _ZN13ZNumPickerDlgD1Ev
41a5cdbc T _ZN13ZNumPickerDlgD2Ev
4186d248 T _ZN13ZRegExpEngine3BoxaSERKS0_
4186870c T _ZN13ZRegExpEngine6getRepEi
418686d8 T _ZN13ZRegExpEngine7getCharEv
41869a48 T _ZN13ZRegExpEngine8getTokenEv
4186a2a8 T _ZN13ZRegExpEngine9CharClassaSERKS0_
41869578 T _ZN13ZRegExpEngine9getEscapeEv
419cd010 T _ZN13ZSegmentField10paintEventEP11QPaintEvent
419cd97c T _ZN13ZSegmentField10setEnabledEb
419cd484 T _ZN13ZSegmentField10setPaletteERK8QPalette
419cd4d8 T _ZN13ZSegmentField10updateSkinEb
419cc830 T _ZN13ZSegmentField11eventFilterEP7QObjectP6QEvent
419cc460 T _ZN13ZSegmentField11resizeEventEP12QResizeEvent
419ccbf4 T _ZN13ZSegmentField12drawBorderExENS_8ItemTypeEP8QPainterPK5QRect
419cccbc T _ZN13ZSegmentField12focusInEventEP11QFocusEvent
419cc538 T _ZN13ZSegmentField12stateChangedENS_17StateChangeReasonE
419ccce8 T _ZN13ZSegmentField13focusOutEventEP11QFocusEvent
419cc74c T _ZN13ZSegmentField13keyPressEventEP9QKeyEvent
419cceb8 T _ZN13ZSegmentField14getCurrentFontER5QFontR6QColorNS_8ItemTypeE
419ce278 T _ZN13ZSegmentField14setNumSegmentsEi
419ccc54 T _ZN13ZSegmentField16drawBackgroundExENS_8ItemTypeEP8QPainterPK5QRect
419ccb8c T _ZN13ZSegmentField16setTitlePositionENS_13TitlePositionE
419cc4bc T _ZN13ZSegmentField17setSelectionStateEN9ZSkinBase14SelectionStateE
419cbb10 T _ZN13ZSegmentField18getSeparatorStringEv
419ce1c4 T _ZN13ZSegmentField18setSeparatorStringE7QString
419cbaec T _ZN13ZSegmentField8getFieldEj
419cbb34 T _ZN13ZSegmentField8getValueEv
419cde8c T _ZN13ZSegmentFieldC1EP7QWidgetPKcjN12ZSkinService11WidgetClsIDE
419ce028 T _ZN13ZSegmentFieldC2EP7QWidgetPKcjN12ZSkinService11WidgetClsIDE
419cd9e0 T _ZN13ZSegmentFieldD0Ev
419cdb74 T _ZN13ZSegmentFieldD1Ev
419cdd00 T _ZN13ZSegmentFieldD2Ev
419c6714 T _ZN13ZSliderModule11updateLabelE7QString
419c6908 T _ZN13ZSliderModule11updateLabelEv
419c61a8 T _ZN13ZSliderModule12setAlignmentENS_9AlignmentE
419c58ec T _ZN13ZSliderModuleC1EiiiiN7ZSlider9IndicatorEP7QWidgetPKcN12ZSkinService11WidgetClsIDE
419c5afc T _ZN13ZSliderModuleC1EN7ZSlider9IndicatorEP7QWidgetPKcN12ZSkinService11WidgetClsIDE
419c5cd4 T _ZN13ZSliderModuleC1EP7QWidgetPKcN12ZSkinService11WidgetClsIDE
419c59f4 T _ZN13ZSliderModuleC2EiiiiN7ZSlider9IndicatorEP7QWidgetPKcN12ZSkinService11WidgetClsIDE
419c5be8 T _ZN13ZSliderModuleC2EN7ZSlider9IndicatorEP7QWidgetPKcN12ZSkinService11WidgetClsIDE
419c5da0 T _ZN13ZSliderModuleC2EP7QWidgetPKcN12ZSkinService11WidgetClsIDE
41a5c860 T _ZN13ZSliderNotice10timerEventEP11QTimerEvent
41a5c718 T _ZN13ZSliderNotice11eventFilterEP7QObjectP6QEvent
41a97324 T _ZN13ZSliderNotice16staticMetaObjectEv
41a5c818 T _ZN13ZSliderNotice9hideEventEP10QHideEvent
41a5c7ec T _ZN13ZSliderNotice9showEventEP10QShowEvent
41a5c3a0 T _ZN13ZSliderNoticeC1ERK7QStringP7QWidgetiiiiPKcj
41a5c214 T _ZN13ZSliderNoticeC2ERK7QStringP7QWidgetiiiiPKcj
41a5c664 T _ZN13ZSliderNoticeD0Ev
41a5c5c8 T _ZN13ZSliderNoticeD1Ev
41a5c52c T _ZN13ZSliderNoticeD2Ev
41a5e25c T _ZN14KbUIController14getAppInfoAreaEP7QWidget
41a5e108 T _ZN14KbUIController16getSoftKeyWidgetEP7QWidget
41a5dfe0 T _ZN14KbUIController17getTopLevelWidgetEv
41a5df48 T _ZN14KbUIController20getCurrentInputFieldEv
         U _ZN14QGDictIterator7toFirstEv
         U _ZN14QGDictIteratorC2ERK6QGDict
         U _ZN14QGDictIteratorD2Ev
         U _ZN14QGDictIteratorppEv
         U _ZN14QGListIterator6toLastEv
         U _ZN14QGListIterator7toFirstEv
         U _ZN14QGListIteratorC2ERK6QGList
         U _ZN14QGListIteratorD2Ev
         U _ZN14QGListIteratormmEv
         U _ZN14QGListIteratorpLEj
         U _ZN14QGListIteratorppEv
         U _ZN14QMemoryManager14pixmapLinestepEiii
418d9b04 T _ZN14UTIL_GifParser11frameNumberEv
418d9b20 T _ZN14UTIL_GifParser11framePeriodEv
418d9ab0 T _ZN14UTIL_GifParser11isAnimationEv
418d9b14 T _ZN14UTIL_GifParser12bitsPerPixelEv
418d9ad8 T _ZN14UTIL_GifParser13isTransparentEv
418d9340 T _ZN14UTIL_GifParser5parseEv
418d9a98 T _ZN14UTIL_GifParser8isGif89aEv
418d9aec T _ZN14UTIL_GifParser9dimensionERjS0_
418d9ca4 T _ZN14UTIL_GifParserC1E6QArrayIcEb
418d9ecc T _ZN14UTIL_GifParserC1ERK7QStringb
418d9db8 T _ZN14UTIL_GifParserC2E6QArrayIcEb
418da0b4 T _ZN14UTIL_GifParserC2ERK7QStringb
418d9b2c T _ZN14UTIL_GifParserD1Ev
418d9be8 T _ZN14UTIL_GifParserD2Ev
418da4e0 T _ZN14UTIL_GifPlayer10decodeMoreEv
418da58c T _ZN14UTIL_GifPlayer10displayOneEi
418db2a8 T _ZN14UTIL_GifPlayer10paintEventEP11QPaintEvent
418db51c T _ZN14UTIL_GifPlayer10pushUpdateEv
418db61c T _ZN14UTIL_GifPlayer10setLoopingEi
418db248 T _ZN14UTIL_GifPlayer10timerEventEP11QTimerEvent
418db270 T _ZN14UTIL_GifPlayer12disableAlphaEv
418db684 T _ZN14UTIL_GifPlayer12enableBufferEb
418db27c T _ZN14UTIL_GifPlayer12setMinPeriodEi
418db074 T _ZN14UTIL_GifPlayer13showNextFrameEv
418db25c T _ZN14UTIL_GifPlayer14disableLoopingEv
41a73b4c T _ZN14UTIL_GifPlayer14initMetaObjectEv
418db634 T _ZN14UTIL_GifPlayer14setFramePeriodEi
418db284 T _ZN14UTIL_GifPlayer14setMemoryLimitEi
41a739e0 T _ZN14UTIL_GifPlayer16staticMetaObjectEv
418db68c T _ZN14UTIL_GifPlayer17disablePaintEventEb
418db67c T _ZN14UTIL_GifPlayer17setFullScreenModeEb
41a7393c T _ZN14UTIL_GifPlayer2trEPKc
41a73990 T _ZN14UTIL_GifPlayer2trEPKcS1_
418db558 T _ZN14UTIL_GifPlayer3endEv
418db8b8 T _ZN14UTIL_GifPlayer5startERK7QStringb
418db5ec T _ZN14UTIL_GifPlayer7changedERK5QRect
41a73bfc T _ZN14UTIL_GifPlayer7loopendEv
41ad2848 B _ZN14UTIL_GifPlayer7metaObjE
418db694 T _ZN14UTIL_GifPlayer7restartEb
418db65c T _ZN14UTIL_GifPlayer7setSizeEii
41a73bd8 T _ZN14UTIL_GifPlayer8finishedEv
418da39c T _ZN14UTIL_GifPlayer9decodeOneEv
418db5f4 T _ZN14UTIL_GifPlayer9frameDoneERK6QPointRK5QRect
418dca84 T _ZN14UTIL_GifPlayer9frameDoneEv
418da328 T _ZN14UTIL_GifPlayer9startshowEv
418da364 T _ZN14UTIL_GifPlayer9terminateEv
418dc1cc T _ZN14UTIL_GifPlayerC1EP7QWidgetPKc
418dc46c T _ZN14UTIL_GifPlayerC1ERK7QString
418dbee4 T _ZN14UTIL_GifPlayerC1ERK7QStringP7QWidgetPKc
418dc78c T _ZN14UTIL_GifPlayerC1Ev
418dc31c T _ZN14UTIL_GifPlayerC2EP7QWidgetPKc
418dc5fc T _ZN14UTIL_GifPlayerC2ERK7QString
418dc058 T _ZN14UTIL_GifPlayerC2ERK7QStringP7QWidgetPKc
418dc908 T _ZN14UTIL_GifPlayerC2Ev
418db990 T _ZN14UTIL_GifPlayerD0Ev
418dbb5c T _ZN14UTIL_GifPlayerD1Ev
418dbd20 T _ZN14UTIL_GifPlayerD2Ev
41864944 W _ZN14UTIL_ResReader10getFirstIDEv
4186495c W _ZN14UTIL_ResReader9getNextIDEv
41864908 W _ZN14UTIL_ResReaderD0Ev
418648dc W _ZN14UTIL_ResReaderD1Ev
41a5b190 T _ZN14ZDatePickerDlg13getDateModuleEv
41a5b150 T _ZN14ZDatePickerDlg13getResultDateEv
41a969a8 T _ZN14ZDatePickerDlg16staticMetaObjectEv
41a5b1bc T _ZN14ZDatePickerDlg18slotResizeAllChildEi
41a5ad2c T _ZN14ZDatePickerDlgC1EP11ZDateModuleP7QWidgetPKcbj
41a5aab4 T _ZN14ZDatePickerDlgC2EP11ZDateModuleP7QWidgetPKcbj
41a5b0bc T _ZN14ZDatePickerDlgD0Ev
41a5b030 T _ZN14ZDatePickerDlgD1Ev
41a5afa4 T _ZN14ZDatePickerDlgD2Ev
419f6ed8 T _ZN14ZExhibitButton10setNumRowsEi
419f6dc0 T _ZN14ZExhibitButton13setButtonTextERK7QString
419f6e68 T _ZN14ZExhibitButton15setExhibitValueERK7QString
419f6ad4 T _ZN14ZExhibitButton16setTitlePositionENS_13TitlePositionE
419f7068 T _ZN14ZExhibitButton8setTitleERK7QString
419f8560 T _ZN14ZExhibitButtonC1EP7QWidgetPKcjN12ZSkinService11WidgetClsIDE
419f879c T _ZN14ZExhibitButtonC2EP7QWidgetPKcjN12ZSkinService11WidgetClsIDE
419d8208 T _ZN14ZFiveWayButton10setDisableEibb
419d90a0 T _ZN14ZFiveWayButton15setKeyPressHoldEib
419d869c T _ZN14ZFiveWayButton15setNormalPixmapERK7QPixmap
419d8714 T _ZN14ZFiveWayButton17setActiveBgPixmapEiRK7QPixmap
419d91a0 T _ZN14ZFiveWayButton19setParentBackgroundEb
419d7d40 T _ZN14ZFiveWayButton8getStateEi
419d805c T _ZN14ZFiveWayButton9isDisableEi
419d86d0 T _ZN14ZFiveWayButton9setActiveEib
419d821c T _ZN14ZFiveWayButton9setHiddenEib
419d9720 T _ZN14ZFiveWayButton9setPixmapEiNS_5StateERK7QPixmap
419d9acc T _ZN14ZFiveWayButtonC1EP7QWidgetPKcjbN12ZSkinService11WidgetClsIDE
419d9cdc T _ZN14ZFiveWayButtonC2EP7QWidgetPKcjbN12ZSkinService11WidgetClsIDE
41974418 T _ZN14ZFormContainer10setPaletteERK8QPalette
41973e60 T _ZN14ZFormContainer10updateSkinEb
41973d24 T _ZN14ZFormContainer11eventFilterEP7QObjectP6QEvent
41974098 T _ZN14ZFormContainer11removeChildEP7ZWidget
41974058 T _ZN14ZFormContainer11resizeEventEP12QResizeEvent
41973e24 T _ZN14ZFormContainer13triggerUpdateEb
4197443c T _ZN14ZFormContainer15slotResizeChildEv
41a81be0 T _ZN14ZFormContainer16staticMetaObjectEv
41974404 T _ZN14ZFormContainer8addChildEP10ZSeparatorbP7ZWidget
41974414 T _ZN14ZFormContainer8addChildEP14ZExhibitButtonbP7ZWidget
41974400 T _ZN14ZFormContainer8addChildEP14ZMultiLineEditbP7ZWidget
419740e0 T _ZN14ZFormContainer8addChildEP7ZWidgetbS1_
41974410 T _ZN14ZFormContainer8addChildEP9ZCheckBoxbP7ZWidget
41974408 T _ZN14ZFormContainer8addChildEP9ZFormItembP7ZWidget
419743fc T _ZN14ZFormContainer8addChildEP9ZGroupBoxbP7ZWidget
4197440c T _ZN14ZFormContainer8addChildEP9ZLineEditbP7ZWidget
41974a70 T _ZN14ZFormContainer9showEventEP10QShowEvent
41973e70 T _ZN14ZFormContainerC1EP7QWidgetjN12ZSkinService11WidgetClsIDE
41973f64 T _ZN14ZFormContainerC2EP7QWidgetjN12ZSkinService11WidgetClsIDE
41973cb8 T _ZN14ZFormContainerD0Ev
41973c54 T _ZN14ZFormContainerD1Ev
41973bf0 T _ZN14ZFormContainerD2Ev
418c41c4 T _ZN14ZKeyObjectBase6addKeyEib
4190497c T _ZN14ZMultiLineEdit10addRedoCmdEP21ZMultiLineEditCommand
419049c0 T _ZN14ZMultiLineEdit10addUndoCmdEP21ZMultiLineEditCommand
418fdcb8 T _ZN14ZMultiLineEdit10cursorDownEb
418fda70 T _ZN14ZMultiLineEdit10cursorDownEbb
418fd6c4 T _ZN14ZMultiLineEdit10cursorLeftEbb
418fd094 T _ZN14ZMultiLineEdit10cursorLeftEbbb
41903584 T _ZN14ZMultiLineEdit10cursorMoveEb
418f959c T _ZN14ZMultiLineEdit10deleteTextEv
41901494 T _ZN14ZMultiLineEdit10deleteWordEv
418f82d4 T _ZN14ZMultiLineEdit10insertCharE5QChar
41905740 T _ZN14ZMultiLineEdit10insertLineERK7QStringi
418f5a24 T _ZN14ZMultiLineEdit10leaveEventEP6QEvent
419059a0 T _ZN14ZMultiLineEdit10paintEventEP11QPaintEvent
4190036c T _ZN14ZMultiLineEdit10processCmdEP21ZMultiLineEditCommandb
419091cc T _ZN14ZMultiLineEdit10removeLineEi
418ff86c T _ZN14ZMultiLineEdit10setHMarginEi
419043c4 T _ZN14ZMultiLineEdit10setPaletteERK8QPalette
418f5b44 T _ZN14ZMultiLineEdit10timerEventEP11QTimerEvent
41900d10 T _ZN14ZMultiLineEdit10updateMaskEv
41903b78 T _ZN14ZMultiLineEdit10updateSkinEb
418f6378 T _ZN14ZMultiLineEdit10wheelEventEP11QWheelEvent
418fd088 T _ZN14ZMultiLineEdit11cursorRightEbb
418fc810 T _ZN14ZMultiLineEdit11cursorRightEbbb
418f5618 T _ZN14ZMultiLineEdit11getEditAreaEv
4190c480 T _ZN14ZMultiLineEdit11insertAtAuxERK7QStringiib
4190cac4 T _ZN14ZMultiLineEdit11insertAtNewERK7QStringiib
4190b510 T _ZN14ZMultiLineEdit11killLineAuxEv
4190b1e0 T _ZN14ZMultiLineEdit11resizeEventEP12QResizeEvent
418f9e00 T _ZN14ZMultiLineEdit11setEchoModeENS_8EchoModeE
418ff814 T _ZN14ZMultiLineEdit11setMaxLinesEi
418f52e8 T _ZN14ZMultiLineEdit11setReadOnlyEb
418f60d0 T _ZN14ZMultiLineEdit11setWordWrapENS_8WordWrapE
41903768 T _ZN14ZMultiLineEdit11setZEnabledEb
41a78048 T _ZN14ZMultiLineEdit11textChangedEv
418fb888 T _ZN14ZMultiLineEdit12backspaceNewEv
418f5790 T _ZN14ZMultiLineEdit12drawLineTextEP8QPainteriiiiiRK7QStringii
418f5a54 T _ZN14ZMultiLineEdit12focusInEventEP11QFocusEvent
418f4674 T _ZN14ZMultiLineEdit12getLineCountEv
41902d0c T _ZN14ZMultiLineEdit12getMDTopAreaEv
418f4b50 T _ZN14ZMultiLineEdit12getRowStringEi
41900ea0 T _ZN14ZMultiLineEdit12getUnderlineEv
419070fc T _ZN14ZMultiLineEdit12paintCell_ifEP8QPainteriibibii7QString12QFontMetrics5QRect11QColorGroup
4190a19c T _ZN14ZMultiLineEdit12rebreakLinesERPNS_17ZMultiLineEditRowER12TsLayoutInfoP9TsLayout_iRiS7_RK7QStringSA_
418ff3a4 T _ZN14ZMultiLineEdit12setMaxLengthEi
418ff8a4 T _ZN14ZMultiLineEdit12setSelectionEiiii
41900e98 T _ZN14ZMultiLineEdit12setUnderlineEb
418f9ddc T _ZN14ZMultiLineEdit12setValidatorEPK10QValidator
41904440 T _ZN14ZMultiLineEdit13clearUndoListEv
418f84b8 T _ZN14ZMultiLineEdit13focusOutEventEP11QFocusEvent
418f416c T _ZN14ZMultiLineEdit13getFrameWidthERiS0_S0_S0_
418f4658 T _ZN14ZMultiLineEdit13getInputFieldEv
41902f04 T _ZN14ZMultiLineEdit13getMDLeftAreaEv
4190d9c8 T _ZN14ZMultiLineEdit13keyPressEventEP9QKeyEvent
418f98c8 T _ZN14ZMultiLineEdit13setAutoUpdateEb
418f61e0 T _ZN14ZMultiLineEdit13setWrapPolicyENS_10WrapPolicyE
41a78024 T _ZN14ZMultiLineEdit13textTrancatedEv
41904a94 T _ZN14ZMultiLineEdit14deleteNextCharEiii
41903118 T _ZN14ZMultiLineEdit14drawTableFrameEP8QPainterR5QRect
418f8c2c T _ZN14ZMultiLineEdit14getCursorStateEv
418f46a4 T _ZN14ZMultiLineEdit14getLineContentEi
41903008 T _ZN14ZMultiLineEdit14getMDRightAreaEv
41a77f74 T _ZN14ZMultiLineEdit14initMetaObjectEv
418fe5fc T _ZN14ZMultiLineEdit14mouseMoveEventEP11QMouseEvent
419032a8 T _ZN14ZMultiLineEdit14resetFocusItemEb
418ff45c T _ZN14ZMultiLineEdit14setFontPercentEf
418ff640 T _ZN14ZMultiLineEdit15getCursorOffsetEii
41902df4 T _ZN14ZMultiLineEdit15getMDBottomAreaEv
418f4224 T _ZN14ZMultiLineEdit15getMDFrameWidthERiS0_S0_S0_
418f4acc T _ZN14ZMultiLineEdit15insertString_ifE6QPoint7QString
418f7b84 T _ZN14ZMultiLineEdit15keyReleaseEventEP9QKeyEvent
418fe9a0 T _ZN14ZMultiLineEdit15mousePressEventEP11QMouseEvent
41a78178 T _ZN14ZMultiLineEdit16contentsResizingEPS_ii
41909738 T _ZN14ZMultiLineEdit16doEnterCharBreakERPNS_17ZMultiLineEditRowEibiRiS3_S3_S3_S3_S3_R7QString
41902d08 T _ZN14ZMultiLineEdit16getContentsWidthEv
418f4f04 T _ZN14ZMultiLineEdit16getParaAlignmentEv
41902a60 T _ZN14ZMultiLineEdit16getTruncateCountEv
418f9824 T _ZN14ZMultiLineEdit16setInitAutoAlignENS_13InitAutoAlignE
4190940c T _ZN14ZMultiLineEdit16setMaxLineLengthEi
419043fc T _ZN14ZMultiLineEdit16setOverwriteModeEb
41901388 T _ZN14ZMultiLineEdit16setTitlePositionENS_13TitlePositionE
41a76ed0 T _ZN14ZMultiLineEdit16staticMetaObjectEv
41900aec T _ZN14ZMultiLineEdit17changeContentSizeEi6QPoint
418f6dcc T _ZN14ZMultiLineEdit17cursorWordForwardEb
418ff75c T _ZN14ZMultiLineEdit17getCorsorPositionERiS0_i
419050a0 T _ZN14ZMultiLineEdit17mouseReleaseEventEP11QMouseEvent
418fb310 T _ZN14ZMultiLineEdit17setCursorPositionEiib
418feb04 T _ZN14ZMultiLineEdit17textWidthWithTabsEi
41900ad8 T _ZN14ZMultiLineEdit18focusNextPrevChildEb
418f5560 T _ZN14ZMultiLineEdit18getFormItemTopAreaEv
418f95f0 T _ZN14ZMultiLineEdit18setCursorFlagExistENS_15CursorFlagExistE
418f9e2c T _ZN14ZMultiLineEdit18setInsertionMethodENS_15InsertionMethodE
41903344 T _ZN14ZMultiLineEdit19getCurrentFocusRectEv
41902b44 T _ZN14ZMultiLineEdit19getFormItemLeftAreaEv
41900f94 T _ZN14ZMultiLineEdit19setTitlePositionAuxERK7QStringi
41902c18 T _ZN14ZMultiLineEdit20getFormItemRightAreaEv
419039b0 T _ZN14ZMultiLineEdit20getLinePixSuffixNameEN9ZSkinBase14SelectionStateER7QString
41903464 T _ZN14ZMultiLineEdit20hasNextPrevFocusItemEb
418f98cc T _ZN14ZMultiLineEdit20setFixedVisibleLinesEi
41902a80 T _ZN14ZMultiLineEdit21getFormItemBottomAreaEv
4190b7e8 T _ZN14ZMultiLineEdit21handleEzxInsertStringEPNS_17ZMultiLineEditRowERK7QStringi
418fa9c4 T _ZN14ZMultiLineEdit21mouseDoubleClickEventEP11QMouseEvent
418f7e5c T _ZN14ZMultiLineEdit21overrideLineDirectionEiNS_14eParaAlignmentEi
418f9668 T _ZN14ZMultiLineEdit22setCursorFlagDirectionENS_19CursorFlagDirectionE
418f525c T _ZN14ZMultiLineEdit22setNestScrollPanelModeEb
418f52dc T _ZN14ZMultiLineEdit23getInputModeCursorModelEv
418feb78 T _ZN14ZMultiLineEdit23insertAtSpecialEzxStyleERK7QStringi
4190c1ec T _ZN14ZMultiLineEdit24handleNormalInsertStringEPNS_17ZMultiLineEditRowERK7QStringii
4190bf90 T _ZN14ZMultiLineEdit3delEv
418fb694 T _ZN14ZMultiLineEdit3endEb
418fb790 T _ZN14ZMultiLineEdit4homeEb
4190b468 T _ZN14ZMultiLineEdit4showEv
41905344 T _ZN14ZMultiLineEdit5clearEv
419006ec T _ZN14ZMultiLineEdit5eventEP6QEvent
419044e4 T _ZN14ZMultiLineEdit6appendERK7QString
4190b944 T _ZN14ZMultiLineEdit6delAuxEv
418f7b44 T _ZN14ZMultiLineEdit6insertERK7QString
4190520c T _ZN14ZMultiLineEdit6insertERK7QStringb
418fdf5c T _ZN14ZMultiLineEdit6pageUpEb
418f8358 T _ZN14ZMultiLineEdit7newLineEv
4190b0c0 T _ZN14ZMultiLineEdit7setFontERK5QFont
419055cc T _ZN14ZMultiLineEdit7setTextERK7QString
418fdf54 T _ZN14ZMultiLineEdit8cursorUpEb
418fdcc0 T _ZN14ZMultiLineEdit8cursorUpEbb
4190cc5c T _ZN14ZMultiLineEdit8insertAtERK7QStringiib
4190b620 T _ZN14ZMultiLineEdit8killLineEv
418fe1cc T _ZN14ZMultiLineEdit8pageDownEb
419013e8 T _ZN14ZMultiLineEdit8setTitleERK7QString
418fc5f0 T _ZN14ZMultiLineEdit9backspaceEv
418f5134 T _ZN14ZMultiLineEdit9getIndentEv
418f570c T _ZN14ZMultiLineEdit9getOffsetEi
419040dc T _ZN14ZMultiLineEdit9getPixmapEN9ZSkinBase14SelectionStateE
41908050 T _ZN14ZMultiLineEdit9paintCellEP8QPainteriiii
418f85f4 T _ZN14ZMultiLineEdit9selectAllEv
418f7940 T _ZN14ZMultiLineEdit9setEditedEb
41900e50 T _ZN14ZMultiLineEdit9setFilterERK7QRegExpb
418feb44 T _ZN14ZMultiLineEdit9textWidthEi
41906ed4 T _ZN14ZMultiLineEditC1EP7QWidgetbiPKc
41906ff4 T _ZN14ZMultiLineEditC1EP7QWidgetPKc
41906f64 T _ZN14ZMultiLineEditC2EP7QWidgetbiPKc
41907078 T _ZN14ZMultiLineEditC2EP7QWidgetPKc
419045a0 T _ZN14ZMultiLineEditD0Ev
419046f4 T _ZN14ZMultiLineEditD1Ev
41904838 T _ZN14ZMultiLineEditD2Ev
41a472a0 T _ZN14ZNumberControl11setDlgTitleERK7QString
41a46e80 T _ZN14ZNumberControl11setLineStepEi
41a46dcc T _ZN14ZNumberControl11setMaxValueEi
41a46df8 T _ZN14ZNumberControl11setMinValueEi
41a46db8 T _ZN14ZNumberControl8getValueEv
41a46d48 T _ZN14ZNumberControl8setLabelEP6ZLabelN10ZNumModule17RelativeAlignmentE
41a46e24 T _ZN14ZNumberControl8setValueEi
41a46c50 T _ZN14ZNumberControlC1EiP7QWidgetPKcj
41a47828 T _ZN14ZNumberControlC1EiRK7QStringN7ZButton13TitlePositionEP7QWidgetPKcj
41a46ccc T _ZN14ZNumberControlC2EiP7QWidgetPKcj
41a478c0 T _ZN14ZNumberControlC2EiRK7QStringN7ZButton13TitlePositionEP7QWidgetPKcj
418ef750 T _ZN14ZResFileReader10getFirstIDEv
418ef8bc T _ZN14ZResFileReader9getNextIDEv
41a5d644 T _ZN14ZTimePickerDlg13getTimeModuleEv
41a5d6a4 T _ZN14ZTimePickerDlg13keyPressEventEP9QKeyEvent
41a97c5c T _ZN14ZTimePickerDlg16staticMetaObjectEv
41a5d6bc T _ZN14ZTimePickerDlg18slotResizeAllChildEi
41a5d650 T _ZN14ZTimePickerDlg7getTimeEv
41a5d564 T _ZN14ZTimePickerDlgC1EP11ZTimeModuleP7QWidgetPKcj
41a5d5d4 T _ZN14ZTimePickerDlgC2EP11ZTimeModuleP7QWidgetPKcj
41a5d2d4 T _ZN14ZTimePickerDlgD0Ev
41a5d278 T _ZN14ZTimePickerDlgD1Ev
41a5d21c T _ZN14ZTimePickerDlgD2Ev
4193c608 T _ZN15AM_ActionParser6actionEv
4193c584 T _ZN15AM_ActionParserC1Ev
4193c578 T _ZN15AM_ActionParserC2Ev
4193c5cc T _ZN15AM_ActionParserD1Ev
4193c590 T _ZN15AM_ActionParserD2Ev
4193d9b4 T _ZN15AM_ActionServerC1EP7QObjectPKc
4193da60 T _ZN15AM_ActionServerC2EP7QObjectPKc
41925a94 T _ZN15IMPluginManager12enableFilterEP7QObjectP11ZInputField
41925978 T _ZN15IMPluginManager13getInputFieldEP7QWidget
419254b0 T _ZN15IMPluginManager13getPluginListEv
4192b2a0 T _ZN15KbPredictEngine14getCombinationERK7QStringS2_S2_R11QStringList
4192b150 T _ZN15KbPredictEngine17getWordCompletionERK7QStringR11QStringList
4192b000 T _ZN15KbPredictEngine19getPhraseCompletionERK7QStringR11QStringList
41a62f04 T _ZN15KbStatusControl12getIconResIdERK14ZKB_InputStatei
41a63680 T _ZN15KbStatusControl14getAppInfoAreaEv
41a62cc8 T _ZN15KbStatusControl16getLangIconResIdERK14ZKB_InputState
41a621a4 T _ZN15KbStatusControl16getModeIconResIdERK14ZKB_InputState
41a62dec T _ZN15KbStatusControl19getNewWordIconResIdERK14ZKB_InputState
41a61f84 T _ZN15KbStatusControl21getShiftModeIconResIdERK14ZKB_InputState
         U _ZN15QMapPrivateBase18removeAndRebalanceEP12QMapNodeBaseRS1_S2_S2_
         U _ZN15QMapPrivateBase9rebalanceEP12QMapNodeBaseRS1_
         U _ZN15QPolygonScanner4scanERK11QPointArraybii
         U _ZN15QSocketNotifierC1EiNS_4TypeEP7QObjectPKc
         U _ZN15QWSServerSocket16staticMetaObjectEv
         U _ZN15QWSServerSocketC2ERK7QStringiP7QObjectPKc
         U _ZN15QWSServerSocketD2Ev
418d7090 T _ZN15RES_ICON_Reader7getIconEPKcb
418d7378 T _ZN15RES_ICON_Reader7getIconEPKcii
418d7428 T _ZN15RES_ICON_Reader8getMovieERK7QString
418d7050 T _ZN15RES_ICON_ReaderC1Ev
418d7018 T _ZN15RES_ICON_ReaderC2Ev
418d708c T _ZN15RES_ICON_ReaderD1Ev
418d7088 T _ZN15RES_ICON_ReaderD2Ev
4190e3d4 W _ZN15UTIL_DelTextCmd4typeEv
4190e3dc W _ZN15UTIL_DelTextCmd5mergeEP21ZMultiLineEditCommand
4190e4dc W _ZN15UTIL_DelTextCmdD0Ev
4190e458 W _ZN15UTIL_DelTextCmdD1Ev
4190e3c4 W _ZN15UTIL_EndCommand10terminatorEv
4190e3cc W _ZN15UTIL_EndCommand4typeEv
4190edb4 W _ZN15UTIL_EndCommandD0Ev
4190ed88 W _ZN15UTIL_EndCommandD1Ev
4190e568 W _ZN15UTIL_InsTextCmd4typeEv
4190e570 W _ZN15UTIL_InsTextCmd5mergeEP21ZMultiLineEditCommand
4190ee74 W _ZN15UTIL_InsTextCmdD0Ev
4190edf0 W _ZN15UTIL_InsTextCmdD1Ev
4186627c T _ZN15UTIL_ShareImage3setEPKhi
418658f4 T _ZN15UTIL_ShareImage4lockEv
41865cd8 T _ZN15UTIL_ShareImage6createEPKhi
41866048 T _ZN15UTIL_ShareImage6existsEv
418659cc T _ZN15UTIL_ShareImage6unlockEv
41865f38 T _ZN15UTIL_ShareImage7destroyEv
418661f4 T _ZN15UTIL_ShareImage7getMaskER7QBitmap
41865ad8 T _ZN15UTIL_ShareImage7setDataER7QPixmapR7QBitmap
418660dc T _ZN15UTIL_ShareImage8getImageER7QPixmap
41865668 T _ZN15UTIL_ShareImageC1ERK7QString
418653dc T _ZN15UTIL_ShareImageC2ERK7QString
41865ff0 T _ZN15UTIL_ShareImageD1Ev
4186601c T _ZN15UTIL_ShareImageD2Ev
4185b500 T _ZN15UTIL_TAPI_Event10GetRawDataEv
4185b518 T _ZN15UTIL_TAPI_Event15ReadTapiMessageEP9QWSSockett
4185b4f8 T _ZN15UTIL_TAPI_Event16GetRawDataLengthEv
4185b358 T _ZN15UTIL_TAPI_Event4initEv
4185b508 T _ZN15UTIL_TAPI_Event7GetTypeEv
4185b510 T _ZN15UTIL_TAPI_Event7setTypeEt
4185b3ac T _ZN15UTIL_TAPI_EventC1Et
4185b370 T _ZN15UTIL_TAPI_EventC2Et
4185b498 T _ZN15UTIL_TAPI_EventD0Ev
4185b440 T _ZN15UTIL_TAPI_EventD1Ev
4185b3e8 T _ZN15UTIL_TAPI_EventD2Ev
419ac8c8 T _ZN15ZCalendarModule7getDateEv
41a5cd20 T _ZN15ZColorPickerDlg13keyPressEventEP9QKeyEvent
41a5ccf8 T _ZN15ZColorPickerDlg14getColorModuleEv
41a975d8 T _ZN15ZColorPickerDlg16staticMetaObjectEv
41a5cd6c T _ZN15ZColorPickerDlg18slotResizeAllChildEi
41a5cd04 T _ZN15ZColorPickerDlg8getColorEv
41a5cbf0 T _ZN15ZColorPickerDlgC1ERK6QColorPjiP7QWidgetPKcj
41a5cc74 T _ZN15ZColorPickerDlgC2ERK6QColorPjiP7QWidgetPKcj
41a5c97c T _ZN15ZColorPickerDlgD0Ev
41a5c920 T _ZN15ZColorPickerDlgD1Ev
41a5c8c4 T _ZN15ZColorPickerDlgD2Ev
41a10c84 T _ZN15ZFsbaPixmapData11getFSBATypeEi
41a10ccc T _ZN15ZFsbaPixmapData12getFSBAColorEi
41a10b48 T _ZN15ZFsbaPixmapData12getFSBAPropsEi
41a116d4 T _ZN15ZFsbaPixmapData13getFsbaPixmapEi
41a112d8 T _ZN15ZFsbaPixmapData13getFsbaPixmapEiiRK6QColor
41a10f94 T _ZN15ZFsbaPixmapData13getFsbaPixmapEiiRK6QColorRK7QString
41a11234 T _ZN15ZFsbaPixmapData13getFsbaPixmapEiiRK7QString
41a10f1c T _ZN15ZFsbaPixmapData13getPixmapListEv
41a10ca8 T _ZN15ZFsbaPixmapData14getFSBAOpacityEi
41a10ea4 T _ZN15ZFsbaPixmapData18getSharePixmapListEv
419efc7c T _ZN15ZImageContainer14getContentRectEv
419ef7a8 T _ZN15ZImageContainer9setPixmapERK7QPixmap
419efb60 T _ZN15ZImageContainerC1EP7QWidgetPKcjN12ZSkinService11WidgetClsIDE
419efa68 T _ZN15ZImageContainerC1ER7QPixmapP7QWidgetPKcjN12ZSkinService11WidgetClsIDE
419efbc0 T _ZN15ZImageContainerC2EP7QWidgetPKcjN12ZSkinService11WidgetClsIDE
419efae4 T _ZN15ZImageContainerC2ER7QPixmapP7QWidgetPKcjN12ZSkinService11WidgetClsIDE
41918ab8 W _ZN15ZInputFieldDataC1EP7QWidget
419690c8 T _ZN15ZListBoxClipper10getListBoxEv
419687d0 T _ZN15ZListBoxClipper10paintEventEP11QPaintEvent
41968864 T _ZN15ZListBoxClipper11currentItemEv
41969884 T _ZN15ZListBoxClipper11eventFilterEP7QObjectP6QEvent
4196c4fc T _ZN15ZListBoxClipper11fillListBoxER5QListI12ZListBoxItemEi
419690a8 T _ZN15ZListBoxClipper11getTopIndexEv
4196adf4 T _ZN15ZListBoxClipper11itemCheckedEi
4196a728 T _ZN15ZListBoxClipper11resizeEventEP12QResizeEvent
419686bc T _ZN15ZListBoxClipper12getPageCountEv
419690b0 T _ZN15ZListBoxClipper12getScrollBarEv
41968fa8 T _ZN15ZListBoxClipper14getScreenCountER5QListI12ZListBoxItemE
4196886c T _ZN15ZListBoxClipper14newClipperItemE7QString
419692c0 T _ZN15ZListBoxClipper14setCurrentItemEi
41969e10 T _ZN15ZListBoxClipper15adjustListItemsER5QListI12ZListBoxItemEb
41968dc0 T _ZN15ZListBoxClipper15getListBoxSpaceER5QListI12ZListBoxItemEi
41a809f8 T _ZN15ZListBoxClipper16staticMetaObjectEv
4196a4b0 T _ZN15ZListBoxClipper17loadInitListItemsEiib
41968e7c T _ZN15ZListBoxClipper18getPageCountByItemER5QListI12ZListBoxItemE
419690a0 T _ZN15ZListBoxClipper18getSelectedIdxListEv
419690d0 T _ZN15ZListBoxClipper18setCacheCheckStateEb
41968c8c T _ZN15ZListBoxClipper19getCurrentPageCountEb
41968688 T _ZN15ZListBoxClipper20getRequestItemsCountEi
419690f8 T _ZN15ZListBoxClipper22skipLoadDataWhenResizeEv
419689a0 T _ZN15ZListBoxClipper4itemEi
4196a39c T _ZN15ZListBoxClipper5clearEv
41968974 T _ZN15ZListBoxClipper5indexEPK12ZListBoxItem
419689dc T _ZN15ZListBoxClipper8setFocusEv
4196b70c T _ZN15ZListBoxClipper9checkItemEib
4196aa7c T _ZN15ZListBoxClipperC1EP7QWidgetjN12ZSkinService11WidgetClsIDE
4196ac8c T _ZN15ZListBoxClipperC1ERK7QStringP7QWidgetjN12ZSkinService11WidgetClsIDE
4196ab84 T _ZN15ZListBoxClipperC2EP7QWidgetjN12ZSkinService11WidgetClsIDE
4196ad40 T _ZN15ZListBoxClipperC2ERK7QStringP7QWidgetjN12ZSkinService11WidgetClsIDE
4196a858 T _ZN15ZListBoxClipperD0Ev
4196a914 T _ZN15ZListBoxClipperD1Ev
4196a9c8 T _ZN15ZListBoxClipperD2Ev
41a57be0 T _ZN15ZMultiSelectDlg10getListBoxEv
41a58050 T _ZN15ZMultiSelectDlg11eventFilterEP7QObjectP6QEvent
41a57a50 T _ZN15ZMultiSelectDlg11setMenuSlotENS_12MENU_INDEX_EEPK7QObjectPKcb
41a58038 T _ZN15ZMultiSelectDlg12updateUIinfoEv
41a580e4 T _ZN15ZMultiSelectDlg14enableMenuItemENS_12MENU_INDEX_EEb
41a57b24 T _ZN15ZMultiSelectDlg14slotRSKClickedEv
41a95aa4 T _ZN15ZMultiSelectDlg16staticMetaObjectEv
41a57bec T _ZN15ZMultiSelectDlg17setRightBtnPromptERK7QString
41a5809c T _ZN15ZMultiSelectDlg18slotResizeAllChildEi
41a57e40 T _ZN15ZMultiSelectDlg19getCheckedItemCountEv
41a5812c T _ZN15ZMultiSelectDlg24enableRSKdefaultBehaviorEb
41a57fdc T _ZN15ZMultiSelectDlg9showEventEP10QShowEvent
41a57968 T _ZN15ZMultiSelectDlgC1EP7QWidgetPKcbj
41a57838 T _ZN15ZMultiSelectDlgC1ERK7QStringS2_P7QWidgetPKcbji
41a579dc T _ZN15ZMultiSelectDlgC2EP7QWidgetPKcbj
41a578d0 T _ZN15ZMultiSelectDlgC2ERK7QStringS2_P7QWidgetPKcbji
41a5723c T _ZN15ZMultiSelectDlgD0Ev
41a571b0 T _ZN15ZMultiSelectDlgD1Ev
41a57124 T _ZN15ZMultiSelectDlgD2Ev
41948018 T _ZN15ZPopupLandscape10getListBoxEv
41948388 T _ZN15ZPopupLandscape10paintEventEP11QPaintEvent
4194838c T _ZN15ZPopupLandscape10updateMaskEv
4194940c T _ZN15ZPopupLandscape11customEventEP12QCustomEvent
41a7ca9c T _ZN15ZPopupLandscape12dlgDismissedEv
41948148 T _ZN15ZPopupLandscape12hideSoftkeysEbbb
41948788 T _ZN15ZPopupLandscape13hasInputFocusEv
41947f84 T _ZN15ZPopupLandscape13keyPressEventEP9QKeyEvent
41947924 T _ZN15ZPopupLandscape13setDialogTypeENS_13DIALOG_TYPE_EE
419479c0 T _ZN15ZPopupLandscape13setHeaderIconERK7QPixmap
419479ac T _ZN15ZPopupLandscape13setHeaderIconERK7QString
41947950 T _ZN15ZPopupLandscape13setHeaderTextERK7QString
4194793c T _ZN15ZPopupLandscape13setNoticeTypeENS_13NOTICE_TYPE_EE
41947810 T _ZN15ZPopupLandscape13updateListBoxEv
41a7c980 T _ZN15ZPopupLandscape14initMetaObjectEv
41947ac4 T _ZN15ZPopupLandscape14setSoftkeyTextERK7QStringS2_
41947c04 T _ZN15ZPopupLandscape14updateGeometryEv
41a7cac0 T _ZN15ZPopupLandscape15askReturnToIdleEi
419481d4 T _ZN15ZPopupLandscape15disableSoftkeysEbbb
41947b7c T _ZN15ZPopupLandscape15keyReleaseEventEP9QKeyEvent
41947e58 T _ZN15ZPopupLandscape15setDismissTimerEi
41947f2c T _ZN15ZPopupLandscape15slotTimerActionEv
41948024 T _ZN15ZPopupLandscape16setContentPixmapERK7QPixmap
41a7c4f0 T _ZN15ZPopupLandscape16staticMetaObjectEv
41947974 T _ZN15ZPopupLandscape17setContentMessageERK7QString
41947aec T _ZN15ZPopupLandscape18connectSoftkeySlotEbb
41a7ca0c T _ZN15ZPopupLandscape18leftSoftkeyClickedEv
41947a10 T _ZN15ZPopupLandscape18setContentProgressEi
4194800c T _ZN15ZPopupLandscape19getLandscapeListBoxEv
41a7ca30 T _ZN15ZPopupLandscape19rightSoftkeyClickedEv
41947e0c T _ZN15ZPopupLandscape19setAutoDismissTimerEi
41947a24 T _ZN15ZPopupLandscape19setSoftkeyLowerTextERK7QString
41947a74 T _ZN15ZPopupLandscape19setSoftkeyUpperTextERK7QString
41947f7c T _ZN15ZPopupLandscape19slotAutoTimerActionEv
419487e4 T _ZN15ZPopupLandscape21installDlgEventFilterEPK7QObject
419479fc T _ZN15ZPopupLandscape21setContentProgressBarEii
41a7ca54 T _ZN15ZPopupLandscape21signalClearKeyPressedEv
41947998 T _ZN15ZPopupLandscape22setHeaderAnimationIconERK7QString
41947ccc T _ZN15ZPopupLandscape23createLandscapeSoftkeysEv
41947dcc T _ZN15ZPopupLandscape23slotLowerSoftkeyClickedEv
41947dec T _ZN15ZPopupLandscape23slotUpperSoftkeyClickedEv
41948068 T _ZN15ZPopupLandscape24updateFullScreenGeometryEv
41a7ca78 T _ZN15ZPopupLandscape25signalCenterSelKeyPressedEv
419479e8 T _ZN15ZPopupLandscape27setContentProgressAnimationERK7QPixmap
419479d4 T _ZN15ZPopupLandscape27setContentProgressAnimationERK7QString
41a7c44c T _ZN15ZPopupLandscape2trEPKc
41a7c4a0 T _ZN15ZPopupLandscape2trEPKcS1_
41947edc T _ZN15ZPopupLandscape4doneENS_14POPUP_ACTION_EE
419477e4 T _ZN15ZPopupLandscape4execEv
419478f8 T _ZN15ZPopupLandscape4hideEv
419478a4 T _ZN15ZPopupLandscape4showEv
41947fcc T _ZN15ZPopupLandscape6acceptEv
41947fec T _ZN15ZPopupLandscape6rejectEv
41ad28f0 B _ZN15ZPopupLandscape7metaObjE
41948e34 T _ZN15ZPopupLandscapeC1ENS_12POPUP_TYPE_EEP7QWidgetPKcbij
41949120 T _ZN15ZPopupLandscapeC2ENS_12POPUP_TYPE_EEP7QWidgetPKcbij
41948820 T _ZN15ZPopupLandscapeD0Ev
41948a2c T _ZN15ZPopupLandscapeD1Ev
41948c30 T _ZN15ZPopupLandscapeD2Ev
419c9fb8 T _ZN15ZProgressSlider11setLineStepEi
419c9f70 T _ZN15ZProgressSlider11setMaxValueEi
419c9f40 T _ZN15ZProgressSlider11setMinValueEi
419c9fe8 T _ZN15ZProgressSlider11setPageStepEi
419c9f28 T _ZN15ZProgressSlider12setThicknessEi
419c832c T _ZN15ZProgressSliderC1EiiiiNS_9IndicatorEN2Qt11OrientationEP7QWidgetPKcN12ZSkinService11WidgetClsIDE
419c84c4 T _ZN15ZProgressSliderC1ENS_9IndicatorEN2Qt11OrientationEP7QWidgetPKcN12ZSkinService11WidgetClsIDE
419c862c T _ZN15ZProgressSliderC1EP7QWidgetPKcN12ZSkinService11WidgetClsIDE
419c83f8 T _ZN15ZProgressSliderC2EiiiiNS_9IndicatorEN2Qt11OrientationEP7QWidgetPKcN12ZSkinService11WidgetClsIDE
419c8578 T _ZN15ZProgressSliderC2ENS_9IndicatorEN2Qt11OrientationEP7QWidgetPKcN12ZSkinService11WidgetClsIDE
419c86c0 T _ZN15ZProgressSliderC2EP7QWidgetPKcN12ZSkinService11WidgetClsIDE
4192a030 T _ZN16IMPluginSwitcher10keyPressedEP9QKeyEventP11ZInputField
419265c0 T _ZN16IMPluginSwitcher11focusGainedEP11ZInputField
41927558 T _ZN16IMPluginSwitcher11keyReleasedEP9QKeyEventP11ZInputField
41929d90 T _ZN16IMPluginSwitcher13activateFieldEP11ZInputFieldi
41926d8c T _ZN16IMPluginSwitcher13getCurrentIMEERP21IInputMethodInterfaceRN13UTIL_Language10LanguageIdE
419265b8 T _ZN16IMPluginSwitcher13getInputFieldEv
41927034 T _ZN16IMPluginSwitcher13selectionLostEP11ZInputField
4192a324 T _ZN16IMPluginSwitcher14enterModalEditEP11ZInputField
41927bcc T _ZN16IMPluginSwitcher14leaveModalEditEP11ZInputField
41929ce8 T _ZN16IMPluginSwitcher15selectionGainedEP11ZInputField
41927c58 T _ZN16IMPluginSwitcher17getCurrentKeyListER10QValueListI11InputMethodERj
41929ecc T _ZN16IMPluginSwitcher18keyPressedInternalEP9QKeyEventP11ZInputField
419299c4 T _ZN16IMPluginSwitcher18setInputMethodListEP11ZInputField
41927424 T _ZN16IMPluginSwitcher19keyReleasedInternalEP9QKeyEventP11ZInputField
41927118 T _ZN16IMPluginSwitcher19saveLastInputMethodEP11ZInputField
41927bec T _ZN16IMPluginSwitcher21getCurrentInputMethodER11InputMethod
4192a33c T _ZN16IMPluginSwitcher5eventEP11ZInputFieldP6QEvent
41927988 T _ZN16IMPluginSwitcher9focusLostEP11ZInputFieldb
41a5ed08 T _ZN16KbLineInputField12getCursorPosEv
41a5f728 T _ZN16KbLineInputField13getCharBoundsE6QPoint
41a5f6dc T _ZN16KbLineInputField14getFieldBoundsEv
41a5f8fc T _ZN16KbLineInputField18getUnderlineBoundsE6QPoint
41a5eadc T _ZN16KbLineInputField7getTextE6QPointb
418d0e4c T _ZN16UTIL_CommandBody18AllocateDataBufferEi
418d0e2c T _ZN16UTIL_CommandBody18AllocateDataBufferEv
418d0db4 T _ZN16UTIL_CommandBodyC1Ev
418d0d9c T _ZN16UTIL_CommandBodyC2Ev
418d0dfc T _ZN16UTIL_CommandBodyD1Ev
418d0dcc T _ZN16UTIL_CommandBodyD2Ev
418ddd3c T _ZN16UTIL_ImageParser5parseEPKc
418de308 T _ZN16UTIL_ImageParserC1E6QArrayIcEPKc
418ddf58 T _ZN16UTIL_ImageParserC1ERK7QStringPKc
418de498 T _ZN16UTIL_ImageParserC2E6QArrayIcEPKc
418de130 T _ZN16UTIL_ImageParserC2ERK7QStringPKc
418dd950 T _ZN16UTIL_ImageParserD1Ev
418dda7c T _ZN16UTIL_ImageParserD2Ev
4185b924 T _ZN16UTIL_TAPI_Device11CloseDeviceEv
4185b748 T _ZN16UTIL_TAPI_Device13IsTapiInvalidEv
41a6f8b8 T _ZN16UTIL_TAPI_Device14initMetaObjectEv
41a6f968 T _ZN16UTIL_TAPI_Device14TAPI_SendEventEP15UTIL_TAPI_Event
4185b9a4 T _ZN16UTIL_TAPI_Device15TAPI_DeviceReadEv
41a6f6ec T _ZN16UTIL_TAPI_Device16staticMetaObjectEv
41a6f944 T _ZN16UTIL_TAPI_Device16TapiDeviceClosedEv
4185b89c T _ZN16UTIL_TAPI_Device18ActivateTapiDeviceEi
41a6f648 T _ZN16UTIL_TAPI_Device2trEPKc
41a6f69c T _ZN16UTIL_TAPI_Device2trEPKcS1_
4185b694 T _ZN16UTIL_TAPI_Device4initEv
4185bae8 T _ZN16UTIL_TAPI_Device5eventEP6QEvent
41ad27ac B _ZN16UTIL_TAPI_Device7metaObjE
4185b964 T _ZN16UTIL_TAPI_Device9setSocketEi
4185b6fc T _ZN16UTIL_TAPI_DeviceC1EP7QObjectPKc
4185b6b0 T _ZN16UTIL_TAPI_DeviceC2EP7QObjectPKc
4185b82c T _ZN16UTIL_TAPI_DeviceD0Ev
4185b7c4 T _ZN16UTIL_TAPI_DeviceD1Ev
4185b75c T _ZN16UTIL_TAPI_DeviceD2Ev
418e1f94 T _ZN16ZApplicationData11getSkinDataEv
418e5590 T _ZN16ZApplicationData7getMsgsE7QString
418dfe58 T _ZN16ZApplicationData8getThemeEv
419574fc T _ZN16ZCanvasRectangle7setSizeEii
419573e4 T _ZN16ZCanvasRectangleC1EiiiiP7ZCanvas
41957290 T _ZN16ZCanvasRectangleC1EP7ZCanvas
41956c5c T _ZN16ZCanvasRectangleC1ERK5QRectP7ZCanvas
4195736c T _ZN16ZCanvasRectangleC2EiiiiP7ZCanvas
41957248 T _ZN16ZCanvasRectangleC2EP7ZCanvas
419572d8 T _ZN16ZCanvasRectangleC2ERK5QRectP7ZCanvas
419574a0 T _ZN16ZCanvasRectangleD0Ev
41956c18 T _ZN16ZCanvasRectangleD1Ev
4195745c T _ZN16ZCanvasRectangleD2Ev
41a0d4a0 T _ZN16ZHeaderShareInfo11getAreaSizeEN7ZHeader11HEADER_TYPEEi
41a0d07c T _ZN16ZHeaderShareInfo11segmentSizeEv
41a0d40c T _ZN16ZHeaderShareInfo11setAreaSizeEN7ZHeader11HEADER_TYPEEiii
41a0d7dc T _ZN16ZHeaderShareInfo12getStatusValEN7ZHeader13HEADER_STATUSE
41a0d750 T _ZN16ZHeaderShareInfo12setStatusValEN7ZHeader13HEADER_STATUSEi
41a0ce58 T _ZN16ZHeaderShareInfo13getLeftPixmapER7QPixmap
41a0cf68 T _ZN16ZHeaderShareInfo13setLeftPixmapERK7QPixmap
41a0ce78 T _ZN16ZHeaderShareInfo14getRightPixmapER7QPixmap
41a0cfbc T _ZN16ZHeaderShareInfo14setRightPixmapERK7QPixmap
41a0cc9c T _ZN16ZHeaderShareInfo6attachEv
41a0cd84 T _ZN16ZHeaderShareInfo7getMaskEP12QSharePixmapR7QPixmap
41a0cd4c T _ZN16ZHeaderShareInfo7releaseEv
41a0d55c T _ZN16ZHeaderShareInfo8getFlagsEv
41a0d69c T _ZN16ZHeaderShareInfo8getResIDEN7ZHeader11HEADER_TYPEENS0_13HEADER_STATUSE
41a0d5b8 T _ZN16ZHeaderShareInfo8setFlagsEc
41a0d604 T _ZN16ZHeaderShareInfo8setResIDEN7ZHeader11HEADER_TYPEENS0_13HEADER_STATUSERK7QString
41a0cdc0 T _ZN16ZHeaderShareInfo9getPixmapEP12QSharePixmapS1_R7QPixmap
41a0d980 T _ZN16ZHeaderShareInfoC1Ev
41a0dc68 T _ZN16ZHeaderShareInfoC2Ev
41a0d208 T _ZN16ZHeaderShareInfoD1Ev
41a0d138 T _ZN16ZHeaderShareInfoD2Ev
41a057f8 T _ZN16ZHeaderSysStatus11getAreaSizeEN7ZHeader11HEADER_TYPEEPiS2_
41a058f0 T _ZN16ZHeaderSysStatus11getLeftIconER7QPixmap
41a05960 T _ZN16ZHeaderSysStatus12getRightIconER7QPixmap
41a06194 T _ZN16ZHeaderSysStatus12getStatusValEN7ZHeader13HEADER_STATUSE
41a05758 T _ZN16ZHeaderSysStatus15getHeaderHeightEN7ZHeader11HEADER_TYPEE
41a056e4 T _ZN16ZHeaderSysStatus7getIconEi
41a056dc T _ZN16ZHeaderSysStatus7getTypeEv
419231f8 T _ZN16ZKbWritingSystem18getWritingSystemIDEi
41923254 T _ZN16ZKbWritingSystem25getSupportedWritingSystemEv
41923184 T _ZN16ZKbWritingSystem37getWritingSystemCodeByWritingSystemIdENS_15WritingSystemIdE
41923118 T _ZN16ZKbWritingSystem37getWritingSystemIdByWritingSystemCodeE7QString
41a4b520 T _ZN16ZMediaController10paintEventEP11QPaintEvent
41a4a8dc T _ZN16ZMediaController10updateSkinEb
41a4bae4 T _ZN16ZMediaController11eventFilterEP7QObjectP6QEvent
41a4bb78 T _ZN16ZMediaController11resizeEventEP12QResizeEvent
41a4bc18 T _ZN16ZMediaController12getCurrMeterEv
41a4b150 T _ZN16ZMediaController13setLabelStyleENS_11LabelRegionERK6QColorbS3_
41a4a67c T _ZN16ZMediaController13setMeterStyleENS_10MeterStyleE
41a4b264 T _ZN16ZMediaController13setTimerLabelENS_16TimerLabelRegionERK7QString
41a4b1cc T _ZN16ZMediaController13toggleMarqueeENS_11LabelRegionEb
41a949c8 T _ZN16ZMediaController14initMetaObjectEv
41a4bc98 T _ZN16ZMediaController14isKeyPressHoldENS_14FiveWayButtonsE
41a4a6f4 T _ZN16ZMediaController14switchToConfigENS_7ColumnAENS_7ColumnBENS_14ProgressWidgetEb
41a4bc84 T _ZN16ZMediaController15setKeyPressHoldENS_14FiveWayButtonsEb
41a94748 T _ZN16ZMediaController16staticMetaObjectEv
41a4bc60 T _ZN16ZMediaController17getCurr5WayButtonEv
41a4b2a0 T _ZN16ZMediaController18setTimerLabelStyleERK6QColorbS2_
41a4aedc T _ZN16ZMediaController19set5WayButtonPixmapENS_14FiveWayButtonsERK7QStringS3_
41a4bc48 T _ZN16ZMediaController21getCurrProgressSliderEv
41a4a08c T _ZN16ZMediaController25setProgressWidgetCurValueEi
41a49e64 T _ZN16ZMediaController25setProgressWidgetMaxValueEi
41a49f3c T _ZN16ZMediaController25setProgressWidgetMinValueEi
41a4a15c T _ZN16ZMediaController26setProgressWidgetParameterEiiiii
41a49e58 T _ZN16ZMediaController7isValidENS_7ColumnAENS_7ColumnBE
41a494c8 T _ZN16ZMediaController8doLayoutEv
41a4b100 T _ZN16ZMediaController8setLabelENS_11LabelRegionERK7QString
41a4bc54 T _ZN16ZMediaController9getSliderEv
41a4ac8c T _ZN16ZMediaControllerC1EP7QWidgetjN12ZSkinService11WidgetClsIDENS_7ColumnAENS_7ColumnBENS_14ProgressWidgetENS_10MeterStyleE
41a4adb4 T _ZN16ZMediaControllerC2EP7QWidgetjN12ZSkinService11WidgetClsIDENS_7ColumnAENS_7ColumnBENS_14ProgressWidgetENS_10MeterStyleE
41a49348 T _ZN16ZMediaControllerD0Ev
41a491d0 T _ZN16ZMediaControllerD1Ev
41a49058 T _ZN16ZMediaControllerD2Ev
41a4cd28 T _ZN16ZSDMultiLineEdit14getParentPointERK6QPointP7QWidget
41a4c064 T _ZN16ZSDMultiLineEdit17getSDDataPositionEiiiRiS0_Rb
41a4cf44 T _ZN16ZSDMultiLineEdit21getStructureDataIndexEi
41a4cda4 T _ZN16ZSDMultiLineEdit22getFirstLineParentAreaEii
41a4ca48 T _ZN16ZSDMultiLineEdit9getParentEv
41a4dbc4 T _ZN16ZSDMultiLineEditC1EP20ZStructureDataParserP7QWidgetPKc
41a4d9fc T _ZN16ZSDMultiLineEditC1EP7QWidgetbP20ZStructureDataParseriPKc
41a4dc9c T _ZN16ZSDMultiLineEditC2EP20ZStructureDataParserP7QWidgetPKc
41a4dae0 T _ZN16ZSDMultiLineEditC2EP7QWidgetbP20ZStructureDataParseriPKc
41a58ad8 T _ZN16ZSingleSelectDlg10getListBoxEv
41a58b40 T _ZN16ZSingleSelectDlg11eventFilterEP7QObjectP6QEvent
41a58c8c T _ZN16ZSingleSelectDlg12addItemsListER11QStringList
41a58bd0 T _ZN16ZSingleSelectDlg14getCheckedItemEv
41a95fac T _ZN16ZSingleSelectDlg14initMetaObjectEv
41a58b18 T _ZN16ZSingleSelectDlg14slotLSKClickedEv
41a95e3c T _ZN16ZSingleSelectDlg16staticMetaObjectEv
41a58c04 T _ZN16ZSingleSelectDlg18slotResizeAllChildEi
41a58bf8 T _ZN16ZSingleSelectDlg19getCheckedItemIndexEv
41a95d98 T _ZN16ZSingleSelectDlg2trEPKc
41a95dec T _ZN16ZSingleSelectDlg2trEPKcS1_
41a58c4c T _ZN16ZSingleSelectDlg9showEventEP10QShowEvent
41a589f0 T _ZN16ZSingleSelectDlgC1EP7QWidgetPKcbj
41a588c0 T _ZN16ZSingleSelectDlgC1ERK7QStringS2_P7QWidgetPKcbji
41a58a64 T _ZN16ZSingleSelectDlgC2EP7QWidgetPKcbj
41a58958 T _ZN16ZSingleSelectDlgC2ERK7QStringS2_P7QWidgetPKcbji
41a5865c T _ZN16ZSingleSelectDlgD0Ev
41a58600 T _ZN16ZSingleSelectDlgD1Ev
41a585a4 T _ZN16ZSingleSelectDlgD2Ev
4193c868 T _ZN17AM_ActionReceiver8instanceEv
41921de4 T _ZN17KbFieldModesState17getFieldInputLangEi
41921fd8 T _ZN17KbFieldModesState17getFieldInputModeEi
41921da0 T _ZN17KbFieldModesState19getDefaultInputLangEv
41a6ed74 T _ZN17KbSyllableControl12getProperPosE5QRect
418ae2c4 T _ZN17SETUP_SET_Manager10clearGroupE7QString
418ae200 T _ZN17SETUP_SET_Manager11removeEntryE7QStringS0_
418ada14 T _ZN17SETUP_SET_Manager14getSettingInfoE7QStringS0_Rbb
418ad948 T _ZN17SETUP_SET_Manager14getSettingInfoE7QStringS0_Rii
418adaf0 T _ZN17SETUP_SET_Manager14getSettingInfoE7QStringS0_Rjj
418ad7a8 T _ZN17SETUP_SET_Manager14getSettingInfoE7QStringS0_RS0_S0_b
418adbbc T _ZN17SETUP_SET_Manager14getSettingInfoE7QStringS0_Rtt
418adf9c T _ZN17SETUP_SET_Manager14setSettingInfoE7QStringS0_b
418aded0 T _ZN17SETUP_SET_Manager14setSettingInfoE7QStringS0_i
418ae068 T _ZN17SETUP_SET_Manager14setSettingInfoE7QStringS0_j
418adcfc T _ZN17SETUP_SET_Manager14setSettingInfoE7QStringS0_S0_b
418ae134 T _ZN17SETUP_SET_Manager14setSettingInfoE7QStringS0_t
418ae844 T _ZN17SETUP_SET_Manager15getEntryKeyListE7QString
418ae350 T _ZN17SETUP_SET_Manager18getSettingFileNameEN9AM_Global4AppsE
418ae33c T _ZN17SETUP_SET_Manager5flushEv
418ad6b0 T _ZN17SETUP_SET_ManagerC1E7QStringb
418ae724 T _ZN17SETUP_SET_ManagerC1EN9AM_Global4AppsEb
418ad674 T _ZN17SETUP_SET_ManagerC2E7QStringb
418ae7b4 T _ZN17SETUP_SET_ManagerC2EN9AM_Global4AppsEb
418ad764 T _ZN17SETUP_SET_ManagerD0Ev
418ad728 T _ZN17SETUP_SET_ManagerD1Ev
418ad6ec T _ZN17SETUP_SET_ManagerD2Ev
4190e3b4 W _ZN17UTIL_BeginCommand10terminatorEv
4190e3bc W _ZN17UTIL_BeginCommand4typeEv
4190ed4c W _ZN17UTIL_BeginCommandD0Ev
4190ed20 W _ZN17UTIL_BeginCommandD1Ev
41a719a8 T _ZN17UTIL_BTKeyHandler14initMetaObjectEv
418c58a4 T _ZN17UTIL_BTKeyHandler15slotMsgReceivedERK8QCStringRK6QArrayIcE
41a715c8 T _ZN17UTIL_BTKeyHandler16staticMetaObjectEv
41a71a34 T _ZN17UTIL_BTKeyHandler2trEPKc
41a71a88 T _ZN17UTIL_BTKeyHandler2trEPKcS1_
41ad27f4 B _ZN17UTIL_BTKeyHandler7metaObjE
418c5130 T _ZN17UTIL_BTKeyHandler8instanceEv
41ad234c B _ZN17UTIL_BTKeyHandler8pHandlerE
418c506c T _ZN17UTIL_BTKeyHandlerC1Ev
418c5198 T _ZN17UTIL_BTKeyHandlerC2Ev
41a71bf4 W _ZN17UTIL_BTKeyHandlerD0Ev
41a71bb8 W _ZN17UTIL_BTKeyHandlerD1Ev
41ad2374 B _ZN17UTIL_HardkeySound10pHKSounderE
418cbfe0 T _ZN17UTIL_HardkeySound11slotMessageERK8QCStringRK6QArrayIcE
41a7215c T _ZN17UTIL_HardkeySound14initMetaObjectEv
41a7203c T _ZN17UTIL_HardkeySound16staticMetaObjectEv
418cb610 T _ZN17UTIL_HardkeySound19slotSysSetupMessageERK8QCStringRK6QArrayIcE
418cb5c0 T _ZN17UTIL_HardkeySound22fetchSliderToneSettingEv
41a71f98 T _ZN17UTIL_HardkeySound2trEPKc
41a71fec T _ZN17UTIL_HardkeySound2trEPKcS1_
41ad2808 B _ZN17UTIL_HardkeySound7metaObjE
418cbb50 T _ZN17UTIL_HardkeySound8instanceEv
418cbd8c T _ZN17UTIL_HardkeySound8soundKeyE14SoundKeyType_Ti
418cb964 T _ZN17UTIL_HardkeySoundC1Ev
418cbba0 T _ZN17UTIL_HardkeySoundC2Ev
418cb614 T _ZN17UTIL_HardkeySoundD0Ev
418cb734 T _ZN17UTIL_HardkeySoundD1Ev
418cb84c T _ZN17UTIL_HardkeySoundD2Ev
418c3080 T _ZN17ZChannelKeyObjectC1EPcP7QObjectPKc
418c3160 T _ZN17ZChannelKeyObjectC2EPcP7QObjectPKc
41a0dfd8 T _ZN17ZKbMainWidgetData9getHeaderEv
41a0dfc8 T _ZN17ZKbMainWidgetDataC1EP7QWidgetN7ZHeader11HEADER_TYPEE
41a0dfb8 T _ZN17ZKbMainWidgetDataC2EP7QWidgetN7ZHeader11HEADER_TYPEE
41943854 T _ZN17ZListBoxLandscape10getListBoxEv
41943da4 T _ZN17ZListBoxLandscape10insertItemEPK9ZListItemib
419438d0 T _ZN17ZListBoxLandscape10paintEventEP11QPaintEvent
419432f8 T _ZN17ZListBoxLandscape11eventFilterEP7QObjectP6QEvent
41943cdc T _ZN17ZListBoxLandscape11setGeometryEiiii
41943c28 T _ZN17ZListBoxLandscape11setTextFontERK5QFont
41943c70 T _ZN17ZListBoxLandscape12setTextColorERK6QColor
41a7b9dc T _ZN17ZListBoxLandscape14initMetaObjectEv
41943bc8 T _ZN17ZListBoxLandscape14setContentTextERK7QString
41943dac T _ZN17ZListBoxLandscape14setCurrentItemEi
41943d94 T _ZN17ZListBoxLandscape16radioItemCheckedEv
41a7b954 T _ZN17ZListBoxLandscape16staticMetaObjectEv
4194385c T _ZN17ZListBoxLandscape17getInstructHeightEv
41943d44 T _ZN17ZListBoxLandscape17setHScrollBarModeEN12ZScrollPanel13ScrollBarModeE
41943d64 T _ZN17ZListBoxLandscape17setVScrollBarModeEN12ZScrollPanel13ScrollBarModeE
41a7b8b0 T _ZN17ZListBoxLandscape2trEPKc
41a7b904 T _ZN17ZListBoxLandscape2trEPKcS1_
41943c98 T _ZN17ZListBoxLandscape6resizeEii
41943c78 T _ZN17ZListBoxLandscape6resizeERK5QSize
41ad28d0 B _ZN17ZListBoxLandscape7metaObjE
41943d84 T _ZN17ZListBoxLandscape9checkItemEib
41942dbc T _ZN17ZListBoxLandscapeC1E7QStringP7QWidgetjN12ZSkinService11WidgetClsIDE
41942ab0 T _ZN17ZListBoxLandscapeC2E7QStringP7QWidgetjN12ZSkinService11WidgetClsIDE
41943238 T _ZN17ZListBoxLandscapeD0Ev
41943180 T _ZN17ZListBoxLandscapeD1Ev
419430c8 T _ZN17ZListBoxLandscapeD2Ev
41a5a20c T _ZN17ZSingleCaptureDlg10initializeENS_14CaptureDlgTypeE
41a5a8a4 T _ZN17ZSingleCaptureDlg11getLineEditEv
41a5a88c T _ZN17ZSingleCaptureDlg13getDialogTypeEv
41a5a8b0 T _ZN17ZSingleCaptureDlg13getEditWidgetEv
41a5a8bc T _ZN17ZSingleCaptureDlg13getResultTextEv
41a5a8d8 T _ZN17ZSingleCaptureDlg13setEditWidgetEP7ZWidget
41a967d8 T _ZN17ZSingleCaptureDlg14initMetaObjectEv
41a5a73c T _ZN17ZSingleCaptureDlg14slotLSKClickedEv
41a5a83c T _ZN17ZSingleCaptureDlg14slotRSKClickedEv
41a5a898 T _ZN17ZSingleCaptureDlg16getMultiLineEditEv
41a96674 T _ZN17ZSingleCaptureDlg16staticMetaObjectEv
41a5aa38 T _ZN17ZSingleCaptureDlg18slotResizeAllChildEi
41a5a64c T _ZN17ZSingleCaptureDlgC1EP7QWidgetPKcbj
41a5a50c T _ZN17ZSingleCaptureDlgC1ERK7QStringS2_NS_14CaptureDlgTypeEP7QWidgetPKcbji
41a5a6c4 T _ZN17ZSingleCaptureDlgC2EP7QWidgetPKcbj
41a5a5ac T _ZN17ZSingleCaptureDlgC2ERK7QStringS2_NS_14CaptureDlgTypeEP7QWidgetPKcbji
41a5a178 T _ZN17ZSingleCaptureDlgD0Ev
41a5a0ec T _ZN17ZSingleCaptureDlgD1Ev
41a5a060 T _ZN17ZSingleCaptureDlgD2Ev
41938f1c T _ZN18KbInputModeManager10setupModesEPK11ZInputFieldR10QValueListI11InputMethodE
41939374 T _ZN18KbInputModeManager10setupModesEPK11ZInputFieldR10QValueListI11InputMethodERi
41936914 T _ZN18KbInputModeManager16setupDefaultModeEPK11ZInputFieldR10QValueListI11InputMethodERi
4193138c T _ZN18KbInputModeManager18setCustomizedModesEPK11ZInputFieldRK10QValueListI5QUuidERS3_I11InputMethodE
41936438 T _ZN18KbInputModeManager24getFieldDefaultInputModeEi
41931420 T _ZN18KbInputModeManager29getDefaultImListForOtherFieldEiRK7QStringR10QValueListI11InputMethodE
41a60124 T _ZN18KbPredictionDialog11getSettingsERbS0_
         U _ZN18QGuardedPtrPrivateC1EP7QObject
         U _ZN18QWSKeyboardHandler15processKeyEventEiiibb
         U _ZN18QWSKeyboardHandler16staticMetaObjectEv
         U _ZN18QWSKeyboardHandlerC2Ev
         U _ZN18QWSKeyboardHandlerD2Ev
418826a4 T _ZN18SETUP_Utility_Impl14getHeapSizeStrEi
41883ac4 T _ZN18SETUP_Utility_Impl16copyProfileValueERK7QStringR17SETUP_SET_ManagerR16PROFILE_CONFIG_S
41882528 T _ZN18SETUP_Utility_Impl16getFlexBitFromBPEPvhPh
418831a4 T _ZN18SETUP_Utility_Impl16getTRProfileNameEib
41886aa0 T _ZN18SETUP_Utility_Impl17writeProfileValueER7QStringR17SETUP_SET_ManagerRK16PROFILE_CONFIG_S
4188220c T _ZN18SETUP_Utility_Impl18getFlexBitFileNameEt
418946c0 T _ZN18SETUP_Utility_Impl18resetBackupProfileEv
41892924 T _ZN18SETUP_Utility_Impl19getAdjustAlertValueERi
418821d0 T _ZN18SETUP_Utility_Impl19getShortcutFileNameEv
41899850 T _ZN18SETUP_Utility_Impl20getProfileIconStringE16ENUM_ALERT_STYLER7QStringb
4188244c T _ZN18SETUP_Utility_Impl20getTimestampFileNameEv
4188e950 T _ZN18SETUP_Utility_Impl26getBackupProfileConfigInfoER16PROFILE_CONFIG_SRK7QString
4188e8a4 T _ZN18SETUP_Utility_Impl26getGroupNameFromAlertStyleER7QStringi
41a73810 T _ZN18UTIL_CommandClient14initMetaObjectEv
41a7372c T _ZN18UTIL_CommandClient16staticMetaObjectEv
418d183c T _ZN18UTIL_CommandClient20ClientProcessCommandEP16UTIL_CommandBody
41a73688 T _ZN18UTIL_CommandClient2trEPKc
41a736dc T _ZN18UTIL_CommandClient2trEPKcS1_
41ad2840 B _ZN18UTIL_CommandClient7metaObjE
418d17cc T _ZN18UTIL_CommandClient8ReadDataEi
418d15a8 T _ZN18UTIL_CommandClientC1Ei
418d14b8 T _ZN18UTIL_CommandClientC2Ei
418d1760 T _ZN18UTIL_CommandClientD0Ev
418d16fc T _ZN18UTIL_CommandClientD1Ev
418d1698 T _ZN18UTIL_CommandClientD2Ev
418d1414 T _ZN18UTIL_CommandServer12AcceptClientEi
418d145c T _ZN18UTIL_CommandServer13newConnectionEi
41a7355c T _ZN18UTIL_CommandServer14initMetaObjectEv
41a734d4 T _ZN18UTIL_CommandServer16staticMetaObjectEv
418d1458 T _ZN18UTIL_CommandServer20ServerProcessCommandEP16UTIL_CommandBodyi
41a73430 T _ZN18UTIL_CommandServer2trEPKc
41a73484 T _ZN18UTIL_CommandServer2trEPKcS1_
41ad2838 B _ZN18UTIL_CommandServer7metaObjE
418d127c T _ZN18UTIL_CommandServerC1E7QString
418d11a0 T _ZN18UTIL_CommandServerC2E7QString
418d13d0 T _ZN18UTIL_CommandServerD0Ev
418d1394 T _ZN18UTIL_CommandServerD1Ev
418d1358 T _ZN18UTIL_CommandServerD2Ev
41877a74 T _ZN18UTIL_HyphenAdapter12insertHyphenER7QStringRi
41877bb8 T _ZN18UTIL_HyphenAdapter12removeHyphenER7QString
41877ca4 T _ZN18UTIL_HyphenAdapter14isHyphenNeededERK7QStringb
41ad2356 B _ZN18UTIL_KeypadHandler10FlipStatusE
418c4fd8 T _ZN18UTIL_KeypadHandler12setFlipStateEb
418c4f30 T _ZN18UTIL_KeypadHandler12setMorphModeE15MORPHING_MODE_E
41ad2354 B _ZN18UTIL_KeypadHandler12SliderStatusE
41a718d4 T _ZN18UTIL_KeypadHandler14initMetaObjectEv
418c7394 T _ZN18UTIL_KeypadHandler14processKeyCodeEt
418c525c T _ZN18UTIL_KeypadHandler15onPmChActivatedEi
418c57e0 T _ZN18UTIL_KeypadHandler15onSystemMessageERK8QCStringRK6QArrayIcE
41a716a8 T _ZN18UTIL_KeypadHandler16staticMetaObjectEv
41a71960 T _ZN18UTIL_KeypadHandler21hardkeyEventActivatedEv
418c5a5c T _ZN18UTIL_KeypadHandler23onLCDStatusNotificationERK8QCStringRK6QArrayIcE
41a71524 T _ZN18UTIL_KeypadHandler2trEPKc
41a71578 T _ZN18UTIL_KeypadHandler2trEPKcS1_
41ad27f8 B _ZN18UTIL_KeypadHandler7metaObjE
418c6a14 T _ZN18UTIL_KeypadHandler8instanceEv
41ad2350 B _ZN18UTIL_KeypadHandler8pHandlerE
418c828c T _ZN18UTIL_KeypadHandler8readDataEi
418c60e4 T _ZN18UTIL_KeypadHandlerC1Ev
418c6a64 T _ZN18UTIL_KeypadHandlerC2Ev
418c5de8 T _ZN18UTIL_KeypadHandlerD0Ev
418c5eec T _ZN18UTIL_KeypadHandlerD1Ev
418c5fe8 T _ZN18UTIL_KeypadHandlerD2Ev
4186377c T _ZN18UTIL_ResFileReader10getFirstIDEv
418648b8 T _ZN18UTIL_ResFileReader11setFileNameERK7QString
418644e0 T _ZN18UTIL_ResFileReader4initERK7QString
4186424c T _ZN18UTIL_ResFileReader4loadEv
4186404c T _ZN18UTIL_ResFileReader5resetEv
418638e8 T _ZN18UTIL_ResFileReader9getNextIDEv
41864518 T _ZN18UTIL_ResFileReaderC1ERK7QString
41864600 T _ZN18UTIL_ResFileReaderC1Ev
4186458c T _ZN18UTIL_ResFileReaderC2ERK7QString
4186475c T _ZN18UTIL_ResFileReaderC2Ev
418640ac T _ZN18UTIL_ResFileReaderD0Ev
4186413c T _ZN18UTIL_ResFileReaderD1Ev
418641c4 T _ZN18UTIL_ResFileReaderD2Ev
41954a90 T _ZN18ZCanvasClusterizerixEi
41956804 T _ZN18ZCanvasPixmapArrayntEv
41a08220 T _ZN18ZHeaderMainDisplay10getSpacingEv
41a0823c T _ZN18ZHeaderMainDisplay11getVSpacingEv
41a08480 T _ZN18ZHeaderMainDisplay13getDeviceRectEv
41a08d6c T _ZN18ZHeaderMainDisplay14getDeviceWidthEv
41a09140 T _ZN18ZHeaderMainDisplay15getWidgetHeightEv
41a08cac T _ZN18ZHeaderMainDisplay16getTitleIconRectEv
41a08d9c T _ZN18ZHeaderMainDisplay16getTitleTextRectEv
41a08410 T _ZN18ZHeaderMainDisplay17getConnectionRectEv
41a08c7c T _ZN18ZHeaderMainDisplay18getConnectionWidthEv
41a08218 T _ZN18ZHeaderMainDisplay18getInternalSpacingEv
4194a204 T _ZN18ZPopupLandscapeDlg10setMessageERK7QString
4194a1c8 T _ZN18ZPopupLandscapeDlg12setTitleIconERK7QPixmap
4194a1b4 T _ZN18ZPopupLandscapeDlg12setTitleIconERK7QString
4194a350 T _ZN18ZPopupLandscapeDlg14initDialogTypeENS_14POPUP_DLG_TYPEE
41a7ccb4 T _ZN18ZPopupLandscapeDlg14initMetaObjectEv
4194ad94 T _ZN18ZPopupLandscapeDlg14initNoticeTypeENS_17POPUP_NOTICE_TYPEE
4194a2a8 T _ZN18ZPopupLandscapeDlg15initProgressBarEi
4194a218 T _ZN18ZPopupLandscapeDlg15setInstructTextERK7QString
41a7cc2c T _ZN18ZPopupLandscapeDlg16staticMetaObjectEv
4194a2cc T _ZN18ZPopupLandscapeDlg18setProgressBarStepEi
4194a22c T _ZN18ZPopupLandscapeDlg20setProgressAnimationEv
4194a2d0 T _ZN18ZPopupLandscapeDlg21connectCustomSoftkeysEbbRK7QStringS2_
4194a1dc T _ZN18ZPopupLandscapeDlg21setTitleAnimationIconERK7QString
41a7cb88 T _ZN18ZPopupLandscapeDlg2trEPKc
41a7cbdc T _ZN18ZPopupLandscapeDlg2trEPKcS1_
41ad28f8 B _ZN18ZPopupLandscapeDlg7metaObjE
4194a1f0 T _ZN18ZPopupLandscapeDlg8setTitleERK7QString
4194b0f0 T _ZN18ZPopupLandscapeDlgC1ENS_17POPUP_NOTICE_TYPEEiRK7QStringS3_P7QWidgetPKcbj
4194b260 T _ZN18ZPopupLandscapeDlgC1ENS_17POPUP_NOTICE_TYPEERK7QStringS3_P7QWidgetPKcbjb
4194ab24 T _ZN18ZPopupLandscapeDlgC1EP7QWidgetPKcbj
4194af68 T _ZN18ZPopupLandscapeDlgC1ERK7QPixmapNS_17POPUP_NOTICE_TYPEEiRK7QStringS6_P7QWidgetPKcbj
4194a9c4 T _ZN18ZPopupLandscapeDlgC1ERK7QStringS2_NS_14POPUP_DLG_TYPEEiP7QWidgetPKcbj
4194b1a8 T _ZN18ZPopupLandscapeDlgC2ENS_17POPUP_NOTICE_TYPEEiRK7QStringS3_P7QWidgetPKcbj
4194b330 T _ZN18ZPopupLandscapeDlgC2ENS_17POPUP_NOTICE_TYPEERK7QStringS3_P7QWidgetPKcbjb
4194ac5c T _ZN18ZPopupLandscapeDlgC2EP7QWidgetPKcbj
4194b02c T _ZN18ZPopupLandscapeDlgC2ERK7QPixmapNS_17POPUP_NOTICE_TYPEEiRK7QStringS6_P7QWidgetPKcbj
4194aa74 T _ZN18ZPopupLandscapeDlgC2ERK7QStringS2_NS_14POPUP_DLG_TYPEEiP7QWidgetPKcbj
4194a168 T _ZN18ZPopupLandscapeDlgD0Ev
4194a124 T _ZN18ZPopupLandscapeDlgD1Ev
4194a0e0 T _ZN18ZPopupLandscapeDlgD2Ev
41ad2364 B _ZN19UTIL_KeyboardFilter10pKeyFilterE
418c83c4 T _ZN19UTIL_KeyboardFilter10timerEventEP11QTimerEvent
41a71e6c T _ZN19UTIL_KeyboardFilter14initMetaObjectEv
418c8b40 T _ZN19UTIL_KeyboardFilter16onGlobalAlertMsgERK8QCStringRK6QArrayIcE
41a71d08 T _ZN19UTIL_KeyboardFilter16staticMetaObjectEv
418c84e0 T _ZN19UTIL_KeyboardFilter17invokeLightSensorEv
418c8d50 T _ZN19UTIL_KeyboardFilter17onSettingsChangedERK8QCStringRK6QArrayIcE
418c8618 T _ZN19UTIL_KeyboardFilter18onCLIMessageChangeERK8QCStringRK6QArrayIcE
418cadf4 T _ZN19UTIL_KeyboardFilter18onLockStatusChangeEb
418c8594 T _ZN19UTIL_KeyboardFilter20onLCDBacklightChangeEbi
418c861c T _ZN19UTIL_KeyboardFilter24forwardKeyToLightManagerEib
41a71c64 T _ZN19UTIL_KeyboardFilter2trEPKc
41a71cb8 T _ZN19UTIL_KeyboardFilter2trEPKcS1_
418c84c8 T _ZN19UTIL_KeyboardFilter5eventEP6QEvent
418c9a0c T _ZN19UTIL_KeyboardFilter6filterEiiibb
41ad2800 B _ZN19UTIL_KeyboardFilter7metaObjE
418c9508 T _ZN19UTIL_KeyboardFilter8instanceEv
418c91ac T _ZN19UTIL_KeyboardFilterC1Ev
418c96b0 T _ZN19UTIL_KeyboardFilterC2Ev
418c8f1c T _ZN19UTIL_KeyboardFilterD0Ev
418c8ffc T _ZN19UTIL_KeyboardFilterD1Ev
418c90d4 T _ZN19UTIL_KeyboardFilterD2Ev
41a72664 T _ZN19UTIL_SlaveKeyFilter14initMetaObjectEv
41a725dc T _ZN19UTIL_SlaveKeyFilter16staticMetaObjectEv
41a72538 T _ZN19UTIL_SlaveKeyFilter2trEPKc
41a7258c T _ZN19UTIL_SlaveKeyFilter2trEPKcS1_
418ccbe4 T _ZN19UTIL_SlaveKeyFilter6filterEiiibb
41ad2818 B _ZN19UTIL_SlaveKeyFilter7metaObjE
418cca38 T _ZN19UTIL_SlaveKeyFilter8instanceEv
41ad237c B _ZN19UTIL_SlaveKeyFilter9_instanceE
418cc9b0 T _ZN19UTIL_SlaveKeyFilterC1Ev
418cca88 T _ZN19UTIL_SlaveKeyFilterC2Ev
418ccb98 T _ZN19UTIL_SlaveKeyFilterD0Ev
418ccb54 T _ZN19UTIL_SlaveKeyFilterD1Ev
418ccb10 T _ZN19UTIL_SlaveKeyFilterD2Ev
418614c8 T _ZN19UTIL_ThemeInterface12getThemeInfoEP16UTIL_ThemeInfo_T
41861db4 T _ZN19UTIL_ThemeInterface13getDefaultPalEi
41861cf0 T _ZN19UTIL_ThemeInterface13getThemeColorE7QString
41860a80 T _ZN19UTIL_ThemeInterface18getThemeConfigInfoER12THEME_CONFIG
41860fe4 T _ZN19UTIL_ThemeInterface22getWidgetSkinnablePropEP16ZWidgetSkinProps
41860d64 T _ZN19UTIL_ThemeInterface27getThemeInfoFromSystemTableER12THEME_CONFIG
418612c0 T _ZN19UTIL_ThemeInterface37getWidgetSkinnablePropFromSystemTableER16ZWidgetSkinProps
41860a74 T _ZN19UTIL_ThemeInterfaceC1Ev
41860a70 T _ZN19UTIL_ThemeInterfaceC2Ev
41860a7c T _ZN19UTIL_ThemeInterfaceD1Ev
41860a78 T _ZN19UTIL_ThemeInterfaceD2Ev
41860178 T _ZN19UTIL_TimeConversion11fromISO8601ERK8QCString
4185ffdc T _ZN19UTIL_TimeConversion5toUTCERK9QDateTime
418600d8 T _ZN19UTIL_TimeConversion7fromUTCEl
4186095c T _ZN19UTIL_TimeConversion9toISO8601ERK5QDate
418608b8 T _ZN19UTIL_TimeConversion9toISO8601ERK9QDateTime
41a0bb6c T _ZN19ZHeaderStyleManager10getSysIconEN7ZHeader11HEADER_TYPEENS0_13HEADER_STATUSEi
41a0b8ac T _ZN19ZHeaderStyleManager15getStatusStringEN7ZHeader13HEADER_STATUSE
41a0c5e4 T _ZN19ZHeaderStyleManager9getPixmapERK7QString
419e5398 T _ZN19ZOptionsMenuPrivate14getUpIndicatorEv
419e5420 T _ZN19ZOptionsMenuPrivate16getDownIndicatorEv
419e5640 T _ZN19ZOptionsMenuPrivate16getMarkIndicatorEv
419e56c8 T _ZN19ZOptionsMenuPrivate17getMarkIndicatorHEv
419e5750 T _ZN19ZOptionsMenuPrivate18getMarkIndicatorHSEv
419e54a8 T _ZN19ZOptionsMenuPrivate19getSubMenuIndicatorEv
419e5530 T _ZN19ZOptionsMenuPrivate20getSubMenuIndicatorHEv
419e55b8 T _ZN19ZOptionsMenuPrivate21getSubMenuIndicatorHSEv
4187adfc T _ZN20AM_LauncherInterface16autoOpenWithSaveERK7QStringb
4187a858 T _ZN20AM_LauncherInterface16launchAppByVoiceERK5QUuidRK7QStringb
4187a6e8 T _ZN20AM_LauncherInterface16launchAppWithUidERK7QStringS2_b
41a701a0 T _ZN20AM_LauncherInterface16staticMetaObjectEv
4187a140 T _ZN20AM_LauncherInterface18getLauncherChannelEv
4187a174 T _ZN20AM_LauncherInterface19launchAppWithUidGidERK7QStringjj
4187b174 T _ZN20AM_LauncherInterface22autoOpenWithAnotherAppERK5QUuidRK7QStringb
4187a9c8 T _ZN20AM_LauncherInterface24launchAppIgnorePhoneLockERK5QUuidRK7QStringb
4187a2a4 T _ZN20AM_LauncherInterface29sendBridgeMessageWithoutRaiseE5QUuidRK8QCStringRK6QArrayIcEb
4187afb8 T _ZN20AM_LauncherInterface8autoOpenERK7QStringb
4187aca8 T _ZN20AM_LauncherInterface9launchAppERK5QUuidb
4187ab38 T _ZN20AM_LauncherInterface9launchAppERK5QUuidRK7QStringb
41879e6c T _ZN20AM_LauncherInterfaceC1EP7QObjectPKc
41879e30 T _ZN20AM_LauncherInterfaceC2EP7QObjectPKc
41879f20 T _ZN20AM_LauncherInterfaceD0Ev
41879ee4 T _ZN20AM_LauncherInterfaceD1Ev
41879ea8 T _ZN20AM_LauncherInterfaceD2Ev
41881fa8 T _ZN20AM_SystemStateClient15postClientEventEN14AM_SystemState12CLIENT_EVENTE
41881db0 T _ZN20AM_SystemStateClient8instanceEv
418c4c10 T _ZN20UTIL_MorphingHandler12setMorphModeE15MORPHING_MODE_E
41a71378 T _ZN20UTIL_MorphingHandler14initMetaObjectEv
41a71254 T _ZN20UTIL_MorphingHandler16staticMetaObjectEv
418c4e68 T _ZN20UTIL_MorphingHandler18setOrientationModeEb
41a711b0 T _ZN20UTIL_MorphingHandler2trEPKc
41a71204 T _ZN20UTIL_MorphingHandler2trEPKcS1_
41ad27ec B _ZN20UTIL_MorphingHandler7metaObjE
418c4d60 T _ZN20UTIL_MorphingHandler8instanceEv
41ad2348 B _ZN20UTIL_MorphingHandler9pInstanceE
418c4cb0 T _ZN20UTIL_MorphingHandlerC1EP7QObjectPKc
418c4db8 T _ZN20UTIL_MorphingHandlerC2EP7QObjectPKc
41a714bc W _ZN20UTIL_MorphingHandlerD0Ev
41a71480 W _ZN20UTIL_MorphingHandlerD1Ev
418cc6f0 T _ZN20UTIL_UI_Sound_Player16enableSliderToneEii
418cc808 T _ZN20UTIL_UI_Sound_Player8soundKeyE14SoundKeyType_Ti
418cc600 T _ZN20UTIL_UI_Sound_Player9playSoundEPKc24UTIL_UI_Sound_Category_E
41956dbc T _ZN20ZCanvasPolygonalItem4drawER8QPainter
41956e00 T _ZN20ZCanvasPolygonalItem6setPenE4QPen
41956e58 T _ZN20ZCanvasPolygonalItem8setBrushE6QBrush
41a078a4 T _ZN20ZHeaderDisplayWindow10getPaddingEi
41a07c10 T _ZN20ZHeaderDisplayWindow11getDrawRectEv
41a07840 T _ZN20ZHeaderDisplayWindow13getWidgetRectEv
41a07e34 T _ZN20ZHeaderDisplayWindow16getMaxIconHeightEi
41873f64 T _ZN20ZStructureDataParser11setTypeInfoERK7QStringS2_PFiS2_RS0_E
418755e8 T _ZN20ZStructureDataParser13setFilterTypeERK7QString
41873a28 T _ZN20ZStructureDataParser14getContainedSDEiii
418750a4 T _ZN20ZStructureDataParser14getCurrentRuleE11QStringList
41873bb8 T _ZN20ZStructureDataParser14getDisplayTextEv
41873798 T _ZN20ZStructureDataParser14getEmailHeaderERK7QStringRS0_i
41875e84 T _ZN20ZStructureDataParser16getStructureDataEiRK7QString
4187659c T _ZN20ZStructureDataParser16getStructureDataERK7QString
41873af4 T _ZN20ZStructureDataParser17getDisplayTextPosEii
418752bc T _ZN20ZStructureDataParser18getCurrentTypeListERK7QString
41874c04 T _ZN20ZStructureDataParser19getStruDataTypeInfoER7QString
41873704 T _ZN20ZStructureDataParser21getCapturedParaNumberERK7QString
4187624c T _ZN20ZStructureDataParser21getStructureDataCountERK7QString
41876f68 T _ZN20ZStructureDataParser5parseERK7QStringiS2_b
41875090 T _ZN20ZStructureDataParser5parseEv
41873730 T _ZN20ZStructureDataParser7getTypeEv
418740bc T _ZN20ZStructureDataParser7setTextERK7QStringib
418768e4 T _ZN20ZStructureDataParser7setTypeERK7QStringb
41876fdc T _ZN20ZStructureDataParserC1ERK7QStringS2_PFiS2_RS0_E
418749ac T _ZN20ZStructureDataParserC1Ev
41877378 T _ZN20ZStructureDataParserC2ERK7QStringS2_PFiS2_RS0_E
41874a0c T _ZN20ZStructureDataParserC2Ev
41874108 T _ZN20ZStructureDataParserD1Ev
41874334 T _ZN20ZStructureDataParserD2Ev
41915fc0 T _ZN21InputFieldTypeHandler12getCapsLogicEi
41915d28 T _ZN21InputFieldTypeHandler12getDelimiterEiR7QString
41915da8 T _ZN21InputFieldTypeHandler13getSymbolListEib
41915cd0 T _ZN21InputFieldTypeHandler17getChunkDelimiterEiR7QString
41913f08 T _ZN21KbMultiLineInputField12getCursorPosEv
41915310 T _ZN21KbMultiLineInputField13getCharBoundsE6QPoint
419152c4 T _ZN21KbMultiLineInputField14getFieldBoundsEv
41915548 T _ZN21KbMultiLineInputField18getUnderlineBoundsE6QPoint
41913ab0 T _ZN21KbMultiLineInputField7getTextE6QPointb
4194e9ec T _ZN21ZOptionsLandscapeMenu10paintEventEP11QPaintEvent
4194de28 T _ZN21ZOptionsLandscapeMenu10removeMenuEv
4194d1a0 T _ZN21ZOptionsLandscapeMenu10updateMaskEv
4194e5a0 T _ZN21ZOptionsLandscapeMenu10updateSizeEv
4194de7c T _ZN21ZOptionsLandscapeMenu11backOneMenuEv
4194d9dc T _ZN21ZOptionsLandscapeMenu11connectItemEiPK7QObjectPKc
4194d858 T _ZN21ZOptionsLandscapeMenu11setItemHideEib
4194d764 T _ZN21ZOptionsLandscapeMenu11setPositionEN12ZOptionsMenu7CornerEER6QPoint
4194dd74 T _ZN21ZOptionsLandscapeMenu12focusInEventEP11QFocusEvent
4194df34 T _ZN21ZOptionsLandscapeMenu12hideMainMenuEv
4194dba4 T _ZN21ZOptionsLandscapeMenu12startMarqueeEv
4194f7f4 T _ZN21ZOptionsLandscapeMenu13focusOutEventEP11QFocusEvent
4194fae4 T _ZN21ZOptionsLandscapeMenu13keyPressEventEP9QKeyEvent
4194eef4 T _ZN21ZOptionsLandscapeMenu13setActiveItemEi
4194e284 T _ZN21ZOptionsLandscapeMenu13setUpSoftkeyLEP9ZSoftKeyL
4194daa4 T _ZN21ZOptionsLandscapeMenu14disconnectItemEiPK7QObjectPKc
4194dfa4 T _ZN21ZOptionsLandscapeMenu14hideNestedMenuEP25ZOptionsLandscapeMenuItem
41a7d770 T _ZN21ZOptionsLandscapeMenu14initMetaObjectEv
4194db74 T _ZN21ZOptionsLandscapeMenu14mainMenuParentEv
4194d948 T _ZN21ZOptionsLandscapeMenu14setItemEnabledEib
4194f12c T _ZN21ZOptionsLandscapeMenu15keyPressKeyLeftEP9QKeyEvent
4194e110 T _ZN21ZOptionsLandscapeMenu15keyReleaseEventEP9QKeyEvent
4194ddbc T _ZN21ZOptionsLandscapeMenu15keyReleaseKeyUpEv
4194f8d4 T _ZN21ZOptionsLandscapeMenu16keyPressKeyRightEP9QKeyEvent
4194e3fc T _ZN21ZOptionsLandscapeMenu16positionSubmenusEv
41a7d650 T _ZN21ZOptionsLandscapeMenu16staticMetaObjectEv
4194deb8 T _ZN21ZOptionsLandscapeMenu17keyReleaseKeyDownEv
4194ee6c T _ZN21ZOptionsLandscapeMenu18updateVisibleItemsEib
4194d068 T _ZN21ZOptionsLandscapeMenu19drawScrollIndicatorEP8QPainter
4194e350 T _ZN21ZOptionsLandscapeMenu21slotSetUpSoftkeyLTextEv
4194ece0 T _ZN21ZOptionsLandscapeMenu21updateVisibleItemListEib
4194e058 T _ZN21ZOptionsLandscapeMenu24keyReleaseKeyLeftSoftKeyEP9QKeyEvent
4194e338 T _ZN21ZOptionsLandscapeMenu25slotRestoreUpSoftkeyLTextEv
41a7d5ac T _ZN21ZOptionsLandscapeMenu2trEPKc
41a7d600 T _ZN21ZOptionsLandscapeMenu2trEPKcS1_
4194f344 T _ZN21ZOptionsLandscapeMenu7genMenuER5QRect5QListI8MenuItemE
41ad290c B _ZN21ZOptionsLandscapeMenu7metaObjE
4194f038 T _ZN21ZOptionsLandscapeMenu8initShowEv
4194cee0 T _ZN21ZOptionsLandscapeMenuC1ER5QRectP7QWidgetPKcjN12ZSkinService11WidgetClsIDE
4194f504 T _ZN21ZOptionsLandscapeMenuC1ER5QRectP7QWidgetPKcjN12ZSkinService11WidgetClsIDEP14ZOptMenuParser7QString
4194ce44 T _ZN21ZOptionsLandscapeMenuC2ER5QRectP7QWidgetPKcjN12ZSkinService11WidgetClsIDE
4194f67c T _ZN21ZOptionsLandscapeMenuC2ER5QRectP7QWidgetPKcjN12ZSkinService11WidgetClsIDEP14ZOptMenuParser7QString
4194d014 T _ZN21ZOptionsLandscapeMenuD0Ev
4194cfc8 T _ZN21ZOptionsLandscapeMenuD1Ev
4194cf7c T _ZN21ZOptionsLandscapeMenuD2Ev
4193aef0 T _ZN22UTIL_ActionDataPrivate4initEv
4193b140 T _ZN22UTIL_ActionDataPrivateC1Ev
4193b2fc T _ZN22UTIL_ActionDataPrivateC2Ev
4193ac30 T _ZN22UTIL_ActionDataPrivateD1Ev
4193adcc T _ZN22UTIL_ActionDataPrivateD2Ev
4193e060 T _ZN23AM_GlobalTimerContainer10getTimeSecEN15AM_GLOBAL_TIMER4TYPEE
4193f088 T _ZN23AM_GlobalTimerInterface15sendTimerChangeEN15AM_GLOBAL_TIMER4TYPEE
4193ef28 T _ZN23AM_GlobalTimerInterfaceC1EP7QObjectPKc
4193efd8 T _ZN23AM_GlobalTimerInterfaceC2EP7QObjectPKc
         U _ZN23UTIL_FONT_Factory_iTypeC1Ev
418ccf3c T _ZN23UTIL_KeyboardLockClient12lockKeyboardEv
418cce9c T _ZN23UTIL_KeyboardLockClient14removeInstanceEv
418ccf44 T _ZN23UTIL_KeyboardLockClient14unlockKeyboardEv
418cd134 T _ZN23UTIL_KeyboardLockClient16resetLockRequestEv
418cd02c T _ZN23UTIL_KeyboardLockClient21requestRelockKeyboardEv
418ccf4c T _ZN23UTIL_KeyboardLockClient21requestUnlockKeyboardEv
418cce1c T _ZN23UTIL_KeyboardLockClient8instanceEv
418ccdec T _ZN23UTIL_KeyboardLockClientC1Ev
418ccedc T _ZN23UTIL_KeyboardLockClientC2Ev
418cce6c T _ZN23UTIL_KeyboardLockClientD1Ev
418ccf0c T _ZN23UTIL_KeyboardLockClientD2Ev
418cf62c W _ZN23UTIL_KeyboardLockServer10countTotalEb
418cd7e0 T _ZN23UTIL_KeyboardLockServer12localRequestEj
41a72954 T _ZN23UTIL_KeyboardLockServer14initMetaObjectEv
41a72834 T _ZN23UTIL_KeyboardLockServer16staticMetaObjectEv
41a72790 T _ZN23UTIL_KeyboardLockServer2trEPKc
41a727e4 T _ZN23UTIL_KeyboardLockServer2trEPKcS1_
41ad2820 B _ZN23UTIL_KeyboardLockServer7metaObjE
418ce2b4 T _ZN23UTIL_KeyboardLockServer9onConnectEi
418cea10 T _ZN23UTIL_KeyboardLockServer9onRequestEi
418cd388 T _ZN23UTIL_KeyboardLockServerC1Ev
418cd5b4 T _ZN23UTIL_KeyboardLockServerC2Ev
418cd85c T _ZN23UTIL_KeyboardLockServerD0Ev
418cdbd4 T _ZN23UTIL_KeyboardLockServerD1Ev
418cdf44 T _ZN23UTIL_KeyboardLockServerD2Ev
418d0740 T _ZN23UTIL_KeyTouchPanelEvent13slotTimeoutUIEv
41a73194 T _ZN23UTIL_KeyTouchPanelEvent14initMetaObjectEv
418d06d4 T _ZN23UTIL_KeyTouchPanelEvent14slotResetTimerEv
41a72b24 T _ZN23UTIL_KeyTouchPanelEvent16staticMetaObjectEv
418d0660 T _ZN23UTIL_KeyTouchPanelEvent20slotActivateFunctionEv
41a73220 T _ZN23UTIL_KeyTouchPanelEvent2trEPKc
41a73274 T _ZN23UTIL_KeyTouchPanelEvent2trEPKcS1_
41ad2828 B _ZN23UTIL_KeyTouchPanelEvent7metaObjE
418d0420 T _ZN23UTIL_KeyTouchPanelEvent8instanceEv
418d0328 T _ZN23UTIL_KeyTouchPanelEventC1Ev
418d0490 T _ZN23UTIL_KeyTouchPanelEventC2Ev
418d05f0 T _ZN23UTIL_KeyTouchPanelEventD0Ev
418d029c T _ZN23UTIL_KeyTouchPanelEventD1Ev
418d0588 T _ZN23UTIL_KeyTouchPanelEventD2Ev
41a48fe8 T _ZN23ZMediaControllerPrivate17getProgressWidgetEv
4194caf8 T _ZN23ZRevLandscapeMainWidget10paintEventEP11QPaintEvent
41a7d218 T _ZN23ZRevLandscapeMainWidget14initMetaObjectEv
41a7ce84 T _ZN23ZRevLandscapeMainWidget16staticMetaObjectEv
4194c908 T _ZN23ZRevLandscapeMainWidget16updateLandscapeWE7QStringP7QPixmap
4194cb0c T _ZN23ZRevLandscapeMainWidget18landscapeSKPressedEbb
4194c7c8 T _ZN23ZRevLandscapeMainWidget19setWidgetBackgroundEP7QWidget
4194c7a4 T _ZN23ZRevLandscapeMainWidget19slotFadeTimerActionEv
4194cb58 T _ZN23ZRevLandscapeMainWidget20showLandscapeWidgetsEb
4194cafc T _ZN23ZRevLandscapeMainWidget27createLowerLandscapeSoftkeyEv
4194cb04 T _ZN23ZRevLandscapeMainWidget27createUpperLandscapeSoftkeyEv
41a7d2a4 T _ZN23ZRevLandscapeMainWidget2trEPKc
41a7d2f8 T _ZN23ZRevLandscapeMainWidget2trEPKcS1_
41ad2900 B _ZN23ZRevLandscapeMainWidget7metaObjE
4194c2ac T _ZN23ZRevLandscapeMainWidgetC1EP7QWidget
4194c02c T _ZN23ZRevLandscapeMainWidgetC2EP7QWidget
4194c6cc T _ZN23ZRevLandscapeMainWidgetD0Ev
4194c5fc T _ZN23ZRevLandscapeMainWidgetD1Ev
4194c52c T _ZN23ZRevLandscapeMainWidgetD2Ev
41aa50d0 R _ZN24UTIL_KeyboardLockCommand10TEMPUNLOCKE
41aa50cc R _ZN24UTIL_KeyboardLockCommand18TEMPUNLOCKCOMPLETEE
41aa50dc R _ZN24UTIL_KeyboardLockCommand4LOCKE
41aa50d8 R _ZN24UTIL_KeyboardLockCommand6UNLOCKE
41aa50bc R _ZN24UTIL_KeyboardLockCommand8INITFLAGE
41aa50c4 R _ZN24UTIL_KeyboardLockCommand8RESETALLE
41aa50c0 R _ZN24UTIL_KeyboardLockCommand9LOCKDEBUGE
41aa50d4 R _ZN24UTIL_KeyboardLockCommand9RESETLOCKE
41aa50c8 R _ZN24UTIL_KeyboardLockCommand9RESETTEMPE
4194430c T _ZN24ZPopupLandscapeSelectDlg11eventFilterEP7QObjectP6QEvent
41944448 T _ZN24ZPopupLandscapeSelectDlg12addItemsListER11QStringList
419443c4 T _ZN24ZPopupLandscapeSelectDlg14getCheckedItemEv
41a7bd1c T _ZN24ZPopupLandscapeSelectDlg14initMetaObjectEv
41943eec T _ZN24ZPopupLandscapeSelectDlg14setSoftkeyTextERK7QStringS2_
41943ed8 T _ZN24ZPopupLandscapeSelectDlg15setInstructTextERK7QString
41a7bbac T _ZN24ZPopupLandscapeSelectDlg16staticMetaObjectEv
41943ef0 T _ZN24ZPopupLandscapeSelectDlg17initializeListBoxEv
419443f4 T _ZN24ZPopupLandscapeSelectDlg19getCheckedItemIndexEv
4194428c T _ZN24ZPopupLandscapeSelectDlg21checkCurHighlightItemEv
419442e4 T _ZN24ZPopupLandscapeSelectDlg23slotLowerSoftkeyClickedEv
4194426c T _ZN24ZPopupLandscapeSelectDlg23slotUpperSoftkeyClickedEv
41a7bda8 T _ZN24ZPopupLandscapeSelectDlg25signalCenterSelKeyPressedEv
41a7bb08 T _ZN24ZPopupLandscapeSelectDlg2trEPKc
41a7bb5c T _ZN24ZPopupLandscapeSelectDlg2trEPKcS1_
41ad28d8 B _ZN24ZPopupLandscapeSelectDlg7metaObjE
41943ec4 T _ZN24ZPopupLandscapeSelectDlg8setTitleERK7QString
4194440c T _ZN24ZPopupLandscapeSelectDlg9showEventEP10QShowEvent
41944184 T _ZN24ZPopupLandscapeSelectDlgC1EP7QWidgetPKcbj
4194405c T _ZN24ZPopupLandscapeSelectDlgC1ERK7QStringS2_P7QWidgetPKcbji
419441f8 T _ZN24ZPopupLandscapeSelectDlgC2EP7QWidgetPKcbj
419440f0 T _ZN24ZPopupLandscapeSelectDlgC2ERK7QStringS2_P7QWidgetPKcbji
41943e78 T _ZN24ZPopupLandscapeSelectDlgD0Ev
41943e34 T _ZN24ZPopupLandscapeSelectDlgD1Ev
41943df0 T _ZN24ZPopupLandscapeSelectDlgD2Ev
418cc3c0 T _ZN25UTIL_UI_Sound_Player_Impl12getSoundInfoEv
41a7240c T _ZN25UTIL_UI_Sound_Player_Impl14initMetaObjectEv
41a7232c T _ZN25UTIL_UI_Sound_Player_Impl16staticMetaObjectEv
418cc428 T _ZN25UTIL_UI_Sound_Player_Impl18slotChangeSettingsERK8QCStringRK6QArrayIcE
41a72288 T _ZN25UTIL_UI_Sound_Player_Impl2trEPKc
41a722dc T _ZN25UTIL_UI_Sound_Player_Impl2trEPKcS1_
418cc2e0 T _ZN25UTIL_UI_Sound_Player_Impl4playEPKc24UTIL_UI_Sound_Category_E
41ad2810 B _ZN25UTIL_UI_Sound_Player_Impl7metaObjE
418cc57c T _ZN25UTIL_UI_Sound_Player_Impl9playSoundEPKc24UTIL_UI_Sound_Category_E
418cc490 T _ZN25UTIL_UI_Sound_Player_ImplC1EP7QObject
418cc604 T _ZN25UTIL_UI_Sound_Player_ImplC2EP7QObject
418cc29c T _ZN25UTIL_UI_Sound_Player_ImplD0Ev
418cc260 T _ZN25UTIL_UI_Sound_Player_ImplD1Ev
418cc224 T _ZN25UTIL_UI_Sound_Player_ImplD2Ev
41a73040 T _ZN26UTIL_KEY_TestCommandClient14initMetaObjectEv
418d00ac T _ZN26UTIL_KEY_TestCommandClient14ProcessKeyFlipEP16UTIL_CommandBody
418d0144 T _ZN26UTIL_KEY_TestCommandClient14ProcessKeyTestEv
418d01e8 T _ZN26UTIL_KEY_TestCommandClient15ProcessKeyPressEP16UTIL_CommandBody
418cffbc T _ZN26UTIL_KEY_TestCommandClient16ProcessKeyStrokeEP16UTIL_CommandBody
41a72c84 T _ZN26UTIL_KEY_TestCommandClient16staticMetaObjectEv
418d08d4 T _ZN26UTIL_KEY_TestCommandClient17ProcesMasterClearEP16UTIL_CommandBody
418d0804 T _ZN26UTIL_KEY_TestCommandClient17ProcesMasterResetEP16UTIL_CommandBody
418d09a4 T _ZN26UTIL_KEY_TestCommandClient20ClientProcessCommandEP16UTIL_CommandBody
41a730cc T _ZN26UTIL_KEY_TestCommandClient2trEPKc
41a73120 T _ZN26UTIL_KEY_TestCommandClient2trEPKcS1_
41ad282c B _ZN26UTIL_KEY_TestCommandClient7metaObjE
418cfd98 T _ZN26UTIL_KEY_TestCommandClientC1Ei
418cfec4 T _ZN26UTIL_KEY_TestCommandClientC2Ei
418cff78 T _ZN26UTIL_KEY_TestCommandClientD0Ev
418cff3c T _ZN26UTIL_KEY_TestCommandClientD1Ev
418cff00 T _ZN26UTIL_KEY_TestCommandClientD2Ev
418cfc80 T _ZN26UTIL_KEY_TestCommandServer10stkMessageERK8QCStringRK6QArrayIcE
418d0a28 T _ZN26UTIL_KEY_TestCommandServer11HasKeyEventEv
41a72fd4 T _ZN26UTIL_KEY_TestCommandServer11MasterClearEv
41a72ff8 T _ZN26UTIL_KEY_TestCommandServer11MasterResetEv
418d0af0 T _ZN26UTIL_KEY_TestCommandServer13HasMouseEventEv
41a72f48 T _ZN26UTIL_KEY_TestCommandServer14initMetaObjectEv
41a72d0c T _ZN26UTIL_KEY_TestCommandServer16staticMetaObjectEv
418cfea0 T _ZN26UTIL_KEY_TestCommandServer20ServerProcessCommandEP16UTIL_CommandBodyi
418cfdd4 T _ZN26UTIL_KEY_TestCommandServer23CreateTestCommandClientEi
41a72a80 T _ZN26UTIL_KEY_TestCommandServer2trEPKc
41a72ad4 T _ZN26UTIL_KEY_TestCommandServer2trEPKcS1_
41ad2830 B _ZN26UTIL_KEY_TestCommandServer7metaObjE
418d0af4 T _ZN26UTIL_KEY_TestCommandServerC1E7QString
418d0c94 T _ZN26UTIL_KEY_TestCommandServerC2E7QString
418cfbe4 T _ZN26UTIL_KEY_TestCommandServerD0Ev
418cfb50 T _ZN26UTIL_KEY_TestCommandServerD1Ev
418cfabc T _ZN26UTIL_KEY_TestCommandServerD2Ev
418dd734 T _ZN27UTIL_ImageParserPrivateData15parse_bmp_imageEv
418ddba8 T _ZN27UTIL_ImageParserPrivateData15parse_gif_imageEv
418dd0dc T _ZN27UTIL_ImageParserPrivateData15parse_pbm_imageEv
418dd384 T _ZN27UTIL_ImageParserPrivateData15parse_png_imageEv
418dd0b4 T _ZN27UTIL_ImageParserPrivateData15parse_xbm_imageEv
418dd08c T _ZN27UTIL_ImageParserPrivateData15parse_xpm_imageEv
418dd1a4 T _ZN27UTIL_ImageParserPrivateData16parse_jpeg_imageEv
418dd104 T _ZN27UTIL_ImageParserPrivateData16parse_wbmp_imageEv
         U _ZN2Qt10waitCursorE
         U _ZN2Qt11arrowCursorE
         U _ZN2Qt11ibeamCursorE
         U _ZN2Qt3redE
         U _ZN2Qt5blackE
         U _ZN2Qt5whiteE
         U _ZN2Qt6color0E
         U _ZN2Qt6color1E
418ccd84 T _ZN34UTIL_KeyboardLockClientPrivateData10disConnectEv
41ad2380 B _ZN34UTIL_KeyboardLockClientPrivateData12minstancePtrE
418ccc70 T _ZN34UTIL_KeyboardLockClientPrivateData15connectToServerEv
         U _ZN4QDir13setNameFilterERK7QString
         U _ZN4QDir9setFilterEi
         U _ZN4QDiraSERK7QString
         U _ZN4QDiraSERKS_
         U _ZN4QDirC1ERK7QStringS2_ii
         U _ZN4QDirC1Ev
         U _ZN4QDirD1Ev
418acf58 W _ZN4QMapI7QStringiEixERKS0_
4188178c W _ZN4QMapI7QStringS0_EixERKS0_
418ac960 W _ZN4QMapIi7QStringEixERKi
41a56298 W _ZN4QMapIibEixERKi
41984738 W _ZN4QMapIN17ZScrollBarPrivate8PIXMAPIDE7QPixmapEixERKS1_
41925f5c W _ZN4QMapIP7QObjectP11ZInputFieldEixERKS1_
         U _ZN4QPenaSERKS_
         U _ZN4QPenC1EN2Qt8PenStyleE
         U _ZN4QPenC1ERK6QColorjN2Qt8PenStyleE
         U _ZN4QPenC1ERKS_
         U _ZN4QPenC1Ev
         U _ZN4QPenD1Ev
         U _ZN4QPTF10fillInIconEPh7QString
         U _ZN4QPTF10fillInRectEPh5QRect
         U _ZN4QPTF10fillInTextEPh7QString
         U _ZN4QPTF11fillInStateEPh
         U _ZN4QPTF12isFlexBitSetEv
         U _ZN4QPTF14fillInHeadTimeEPhi
         U _ZN4QPTF17fillInPayloadSendEPhi
         U _ZN4QPTF17getTotalRectangleEv
         U _ZN4QUrl6decodeER7QString
         U _ZN4QUrl6encodeER7QString
418ee8b4 T _ZN4ZMsg4sendEv
418ee724 T _ZN4ZMsgC1ERK8QCStringS2_b
418ee7ec T _ZN4ZMsgC2ERK8QCStringS2_b
418ee53c T _ZN4ZMsgD0Ev
418ee5e4 T _ZN4ZMsgD1Ev
418ee684 T _ZN4ZMsgD2Ev
         U _ZN5QChar4nullE
         U _ZN5QDate11currentDateEv
         U _ZN5QDate6setYMDEiii
         U _ZN5QDateC1Eiii
         U _ZN5QFile10encodeNameERK7QString
         U _ZN5QFile10writeBlockEPKcj
         U _ZN5QFile4openEi
         U _ZN5QFile5closeEv
         U _ZN5QFile6existsERK7QString
         U _ZN5QFile6removeERK7QString
         U _ZN5QFile6removeEv
         U _ZN5QFile8readLineER7QStringj
         U _ZN5QFile9readBlockEPcj
         U _ZN5QFileC1ERK7QString
         U _ZN5QFileD1Ev
         U _ZN5QFont12setPointSizeEi
         U _ZN5QFont12setStrikeOutEb
         U _ZN5QFont12setUnderlineEb
         U _ZN5QFont14setAlterNumberEb
         U _ZN5QFont9setFamilyERK7QString
         U _ZN5QFont9setItalicEb
         U _ZN5QFont9setWeightEi
         U _ZN5QFontaSERKS_
         U _ZN5QFontC1ERK7QStringiib
         U _ZN5QFontC1ERKS_
         U _ZN5QFontC1Ev
         U _ZN5QFontD1Ev
419f1aa0 W _ZN5QListIN9ZWrapLine16ZWrapLineEditRowEE10deleteItemEPv
419f1a04 W _ZN5QListIN9ZWrapLine16ZWrapLineEditRowEE5clearEv
419f1a08 W _ZN5QListIN9ZWrapLine16ZWrapLineEditRowEED0Ev
419f1a54 W _ZN5QListIN9ZWrapLine16ZWrapLineEditRowEED1Ev
         U _ZN5QRect11moveTopLeftERK6QPoint
         U _ZN5QRect6moveByEii
         U _ZN5QRect7setRectEiiii
         U _ZN5QRect8setWidthEi
         U _ZN5QRect9setHeightEi
         U _ZN5QRectaNERKS_
         U _ZN5QRectC1ERK6QPointRK5QSize
         U _ZN5QRectC1ERK6QPointS2_
         U _ZN5QRectoRERKS_
         U _ZN5QTime11currentTimeEv
         U _ZN5QTime5startEv
         U _ZN5QTime6setHMSEiiii
         U _ZN5QTime7elapsedEv
         U _ZN5QTimeC1Eiiii
         U _ZN5QUuidC1ERK7QString
418f1560 T _ZN5ZSkin4skinEv
4197e124 T _ZN5ZText12truncateHeadERK7QStringijRK5QFontS0_
4197df24 T _ZN5ZText12truncateTailERK7QStringijRK5QFontS0_
4197e744 T _ZN5ZText13getAlignInRTLEi
4197e388 T _ZN5ZText14getStringWidthERK5QFontRK7QStringi
4197de68 T _ZN5ZText17getWrapTextHeightER5QFontiN9ZWrapLine10WrapPolicyEj
4197ea30 T _ZN5ZText5paintER8QPainterR5QRectbi7QStringjN9ZWrapLine10WrapPolicyEb6QColori
4197e3ac T _ZN5ZText8truncateERK5QFontRK7QStringjiS5_
4197de08 T _ZN5ZTextC1ERK7QString
4197dd00 T _ZN5ZTextC1Ev
4197dda8 T _ZN5ZTextC2ERK7QString
4197dc58 T _ZN5ZTextC2Ev
         U _ZN6QAccel10insertItemEii
         U _ZN6QAccel11connectItemEiPK7QObjectPKc
         U _ZN6QAccel11shortcutKeyERK7QString
         U _ZN6QAccel14setItemEnabledEib
         U _ZN6QAccel3keyEi
         U _ZN6QAccel5clearEv
         U _ZN6QAccelC1EP7QWidgetPKc
         U _ZN6QBrushaSERKS_
         U _ZN6QBrushC1EN2Qt10BrushStyleE
         U _ZN6QBrushC1ERK6QColorN2Qt10BrushStyleE
         U _ZN6QBrushC1ERKS_
         U _ZN6QBrushC1Ev
         U _ZN6QBrushD1Ev
         U _ZN6QColor6setRgbEiii
         U _ZN6QColor6setRgbEj
         U _ZN6QColoraSERKS_
         U _ZN6QColorC1Ejj
         U _ZN6QColorC1ERKS_
         U _ZN6QEventD2Ev
         U _ZN6QFrame10paintEventEP11QPaintEvent
         U _ZN6QFrame10updateMaskEv
         U _ZN6QFrame12drawContentsEP8QPainter
         U _ZN6QFrame12frameChangedEv
         U _ZN6QFrame12setFrameRectERK5QRect
         U _ZN6QFrame12setLineWidthEi
         U _ZN6QFrame13drawFrameMaskEP8QPainter
         U _ZN6QFrame13setFrameStyleEi
         U _ZN6QFrame15setMidLineWidthEi
         U _ZN6QFrame16drawContentsMaskEP8QPainter
         U _ZN6QFrame9drawFrameEP8QPainter
         U _ZN6QFrame9setMarginEi
         U _ZN6QFrameC1EP7QWidgetPKcjb
         U _ZN6QGDict10remove_ptrEPvS0_
         U _ZN6QGDict12remove_asciiEPKcPv
         U _ZN6QGDict4readER11QDataStreamRPv
         U _ZN6QGDict5clearEv
         U _ZN6QGDict8look_intElPvi
         U _ZN6QGDict8look_ptrEPvS0_i
         U _ZN6QGDict8take_intEl
         U _ZN6QGDict8take_ptrEPv
         U _ZN6QGDictC2EjNS_7KeyTypeEbb
         U _ZN6QGDictD2Ev
         U _ZN6QGList12compareItemsEPvS0_
         U _ZN6QGList4findEPvb
         U _ZN6QGList4lastEv
         U _ZN6QGList4nextEv
         U _ZN6QGList4prevEv
         U _ZN6QGList4readER11QDataStreamRPv
         U _ZN6QGList4sortEv
         U _ZN6QGList4takeEv
         U _ZN6QGList5clearEv
         U _ZN6QGList5firstEv
         U _ZN6QGList6appendEPv
         U _ZN6QGList6locateEj
         U _ZN6QGList6removeEPv
         U _ZN6QGList6takeAtEj
         U _ZN6QGList7findRefEPvb
         U _ZN6QGList8insertAtEjPv
         U _ZN6QGList8removeAtEj
         U _ZN6QGList9removeRefEPv
         U _ZN6QGList9takeFirstEv
         U _ZN6QGListC2ERKS_
         U _ZN6QGListC2Ev
         U _ZN6QGListD2Ev
         U _ZN6QImage12loadFromDataEPKhjPKc
         U _ZN6QImage14setAlphaBufferEb
         U _ZN6QImage4fillEj
         U _ZN6QImage4loadERK7QStringPKc
         U _ZN6QImageaSERKS_
         U _ZN6QImageC1EiiiiNS_6EndianE
         U _ZN6QImageC1ERK7QStringPKc
         U _ZN6QImageC1ERKS_
         U _ZN6QImageC1Ev
         U _ZN6QImageD1Ev
         U _ZN6QLabel9setIndentEi
         U _ZN6QLabelC1ERK7QStringP7QWidgetPKcj
         U _ZN6QMovie13connectResizeEP7QObjectPKc
         U _ZN6QMovie13connectStatusEP7QObjectPKc
         U _ZN6QMovie13connectUpdateEP7QObjectPKc
         U _ZN6QMovie16disconnectResizeEP7QObjectPKc
         U _ZN6QMovie16disconnectStatusEP7QObjectPKc
         U _ZN6QMovie16disconnectUpdateEP7QObjectPKc
         U _ZN6QMovie5pauseEv
         U _ZN6QMovie7restartEv
         U _ZN6QMovie7unpauseEv
         U _ZN6QMovieaSERKS_
         U _ZN6QMovieC1E6QArrayIcEi
         U _ZN6QMovieC1ERKS_
         U _ZN6QMovieC1Ev
         U _ZN6QMovieD1Ev
         U _ZN6QStyle10buttonRectEiiii
         U _ZN6QStyle13drawSeparatorEP8QPainteriiiiRK11QColorGroupbii
         U _ZN6QStyle14drawButtonMaskEP8QPainteriiii
         U _ZN6QStyle14drawRectStrongEP8QPainteriiiiRK11QColorGroupbiiPK6QBrush
         U _ZN6QStyle14drawToolButtonEP8QPainteriiiiRK11QColorGroupbPK6QBrush
         U _ZN6QStyle15scrollBarExtentEv
         U _ZN6QStyle17drawIndicatorMaskEP8QPainteriiiii
         U _ZN6QStyle18drawProgressAmountEP8QPainter5QRectS2_iiiiR11QColorGroup
         U _ZN6QStyle18setScrollBarExtentEii
         U _ZN6QStyle20drawDialogBackgroundEP8QPainteriiiiR6QBrush
         U _ZN6QStyle22drawLineEditBackgroundEP8QPainteriiiiR6QBrush
         U _ZN6QStyle22drawProgressBackgroundEP8QPainter5QRectR11QColorGroup
         U _ZN6QStyle6polishEP12QApplication
         U _ZN6QStyle6polishEP7QWidget
         U _ZN6QStyle6polishER8QPalette
         U _ZN6QStyle8drawItemEP8QPainteriiiiiRK11QColorGroupbPK7QPixmapRK7QStringiPK6QColor
         U _ZN6QStyle8drawRectEP8QPainteriiiiRK6QColoriPK6QBrush
         U _ZN6QStyle8itemRectEP8QPainteriiiiibPK7QPixmapRK7QStringi
         U _ZN6QStyle8unPolishEP12QApplication
         U _ZN6QStyle8unPolishEP7QWidget
         U _ZN6QTimer10singleShotEiP7QObjectPKc
         U _ZN6QTimer4stopEv
         U _ZN6QTimer5startEib
         U _ZN6QTimerC1EP7QObjectPKc
         U _ZN6QTimerD1Ev
419b71fc T _ZN6ZColor12getColorNameE6QColor
419eebc4 T _ZN6ZImage10paintEventEP11QPaintEvent
419ef540 T _ZN6ZImage10setEnabledEb
419ef5c0 T _ZN6ZImage10setPaletteERK8QPalette
419ef130 T _ZN6ZImage11setGeometryEiiii
419ef27c T _ZN6ZImage11setGeometryERK5QRect
419ee9f8 T _ZN6ZImage12movieResizedERK5QSize
419ee828 T _ZN6ZImage12movieUpdatedERK5QRect
419ee794 T _ZN6ZImage14getContentRectEv
41a8ec98 T _ZN6ZImage16staticMetaObjectEv
419ef2c4 T _ZN6ZImage6resizeEii
419eeb0c T _ZN6ZImage8setMovieERK6QMovie
419eeed4 T _ZN6ZImage9setPixmapERK7QPixmap
419ee4b4 T _ZN6ZImageC1EP7QWidgetPKcj
419ef040 T _ZN6ZImageC1ER7QPixmapP7QWidgetPKcj
419ee510 T _ZN6ZImageC2EP7QWidgetPKcj
419ef0b8 T _ZN6ZImageC2ER7QPixmapP7QWidgetPKcj
419ee640 T _ZN6ZImageD0Ev
419ee69c T _ZN6ZImageD1Ev
419ee6f0 T _ZN6ZImageD2Ev
419f3778 T _ZN6ZLabel10fontChangeERK5QFont
419f53d0 T _ZN6ZLabel10paintEventEP11QPaintEvent
419f410c T _ZN6ZLabel10setEnabledEb
419f3290 T _ZN6ZLabel10setLeadingEi
419f4680 T _ZN6ZLabel10setOutlineEb6QColorS0_
419f3f6c T _ZN6ZLabel10setPaddingERK18ZWidgetPaddingInfo
419f4060 T _ZN6ZLabel10setPaletteERK8QPalette
419f23fc T _ZN6ZLabel11getRealNumsEv
419f27b4 T _ZN6ZLabel11getTruncStrER7QStringci
419f3db4 T _ZN6ZLabel11marqueePlayEv
419f3e00 T _ZN6ZLabel11setGeometryEiiii
419f3e34 T _ZN6ZLabel11setGeometryERK5QRect
419f3668 T _ZN6ZLabel11setNumLinesEi
419f2b18 T _ZN6ZLabel12getLabelRectEv
419f3954 T _ZN6ZLabel12setAlignmentEN2Qt14AlignmentFlagsE
419f3ea0 T _ZN6ZLabel12setFontColorERK6QColor
419f25ec T _ZN6ZLabel13getSpaceWidthEv
419f3864 T _ZN6ZLabel13setAutoResizeEb
419f3410 T _ZN6ZLabel13setWrapPolicyEN9ZWrapLine10WrapPolicyE
419f2be4 T _ZN6ZLabel14getContentRectEv
419f2650 T _ZN6ZLabel14getHTotalWidthEv
419f42a4 T _ZN6ZLabel14getTrancatestrERK7QString
419f2964 T _ZN6ZLabel14setMarqueeStepEi
419f25b0 T _ZN6ZLabel15getVTotalHeightEv
419f29ec T _ZN6ZLabel15setMarqueeSpeedEi
419f3d70 T _ZN6ZLabel15setMarqueeStateENS_12MarqueeStateE
419f35bc T _ZN6ZLabel16setTextDirectionENS_13TextDirectionE
41a8f340 T _ZN6ZLabel16staticMetaObjectEv
419f3194 T _ZN6ZLabel17setPreferredWidthEi
419f2a74 T _ZN6ZLabel18getContentNumLinesEv
419f28f4 T _ZN6ZLabel19setMarqueeDirectionENS_16MarqueeDirectionE
419f4280 T _ZN6ZLabel19setParentBackgroundEb
419f2e4c T _ZN6ZLabel20setMarqueeRepetitionEi
419f3e7c T _ZN6ZLabel6resizeEii
419f3a18 T _ZN6ZLabel7setTextERK7QString
419f3370 T _ZN6ZLabel9showEventEP10QShowEvent
419f2284 T _ZN6ZLabelC1EP7QWidgetPKcjN12ZSkinService11WidgetClsIDE
419f3b50 T _ZN6ZLabelC1ERK7QStringP7QWidgetPKcjN12ZSkinService11WidgetClsIDE
419f22e0 T _ZN6ZLabelC2EP7QWidgetPKcjN12ZSkinService11WidgetClsIDE
419f3bc8 T _ZN6ZLabelC2ERK7QStringP7QWidgetPKcjN12ZSkinService11WidgetClsIDE
419f1d38 T _ZN6ZLabelD0Ev
419f1c2c T _ZN6ZLabelD1Ev
419f1b20 T _ZN6ZLabelD2Ev
419bd5b4 T _ZN6ZMeter10setMaxSizeEi
419bd644 T _ZN6ZMeter12setAlignmentENS_9AlignmentE
419bfdc8 T _ZN6ZMeter13setAutoResizeEb
419bd960 T _ZN6ZMeter14setInformationENS_11InformationE
419bf070 T _ZN6ZMeter5pauseEv
419be78c T _ZN6ZMeter5resetEv
419bec18 T _ZN6ZMeterC1E7QStringP7QWidgetPKcjN12ZSkinService11WidgetClsIDE
419be9f8 T _ZN6ZMeterC1EiiP7QWidgetPKcjN12ZSkinService11WidgetClsIDE
419be810 T _ZN6ZMeterC1EiP7QWidgetPKcjN12ZSkinService11WidgetClsIDE
419bee08 T _ZN6ZMeterC2E7QStringP7QWidgetPKcjN12ZSkinService11WidgetClsIDE
419beb08 T _ZN6ZMeterC2EiiP7QWidgetPKcjN12ZSkinService11WidgetClsIDE
419be904 T _ZN6ZMeterC2EiP7QWidgetPKcjN12ZSkinService11WidgetClsIDE
419cb964 T _ZN6ZPanel10paintEventEP11QPaintEvent
419cb9c4 T _ZN6ZPanel10setPaletteERK8QPalette
419cb9e8 T _ZN6ZPanel10updateSkinEb
419cb9f4 T _ZN6ZPanelC1EP7QWidgetPKcjN12ZSkinService11WidgetClsIDE
419cba60 T _ZN6ZPanelC2EP7QWidgetPKcjN12ZSkinService11WidgetClsIDE
419cb8e8 T _ZN6ZPanelD0Ev
419cb89c T _ZN6ZPanelD1Ev
419cb850 T _ZN6ZPanelD2Ev
41a50b04 T _ZN6ZPopup10getSoftKeyEv
41a53710 T _ZN6ZPopup10getUNSFlagEv
41a531c0 T _ZN6ZPopup10setPaletteERK8QPalette
41a5363c T _ZN6ZPopup10setUNSFlagE10UNS_PRIO_T
41a53b48 T _ZN6ZPopup10showUNSDlgEb
41a51690 T _ZN6ZPopup10timerEventEP11QTimerEvent
41a55fb4 T _ZN6ZPopup11customEventEP12QCustomEvent
41a53ee4 T _ZN6ZPopup11insertChildEP11ZDetailViewi
41a53f58 T _ZN6ZPopup11insertChildEP14ZFormContaineri
41a53fe4 T _ZN6ZPopup11insertChildEP7ZWidgeti
41a53e70 T _ZN6ZPopup11insertChildEP9ZIconViewi
41a50adc T _ZN6ZPopup12setTitleIconERK7QPixmap
41a50acc T _ZN6ZPopup12setTitleIconERK7QString
41a50ccc T _ZN6ZPopup13getScrollableEv
41a50d4c T _ZN6ZPopup13keyPressEventEP9QKeyEvent
41a50cb0 T _ZN6ZPopup13setScrollableEb
41a50af8 T _ZN6ZPopup14getAppInfoAreaEv
41a50aec T _ZN6ZPopup14getPopupHeaderEv
41a9559c T _ZN6ZPopup14initMetaObjectEv
41a53080 T _ZN6ZPopup14setBodyPaddingERK18ZWidgetPaddingInfo
41a50b80 T _ZN6ZPopup14setSoftkeyTextERK7QStringS2_
41a516e0 T _ZN6ZPopup14slotLSKClickedEv
41a51728 T _ZN6ZPopup14slotRSKClickedEv
41a530e4 T _ZN6ZPopup15setBodyVSpacingEi
41a53134 T _ZN6ZPopup15setInstructFontERK5QFont
41a510f0 T _ZN6ZPopup15setInstructTextERK7QString
41a539f4 T _ZN6ZPopup16getBypassSIMLockEv
41a53990 T _ZN6ZPopup16setBypassSIMLockEb
41a53624 T _ZN6ZPopup16setInstructAlignEN2Qt14AlignmentFlagsE
41a94f44 T _ZN6ZPopup16staticMetaObjectEv
41a50be8 T _ZN6ZPopup17setInsTruncPolicyEb
41a95628 T _ZN6ZPopup18leftSoftkeyClickedEv
41a50cdc T _ZN6ZPopup18setAutoDismissTimeEi
41a530f0 T _ZN6ZPopup18setInstructPaddingERK18ZWidgetPaddingInfo
41a50b10 T _ZN6ZPopup18setSoftkeyTextLeftERK7QString
41a53008 T _ZN6ZPopup18slotResizeAllChildEi
41a54494 T _ZN6ZPopup19getChildrenMaxWidthEv
41a9564c T _ZN6ZPopup19rightSoftkeyClickedEv
41a561a4 T _ZN6ZPopup19setReturnIdlePolicyEib
41a50b48 T _ZN6ZPopup19setSoftkeyTextRightERK7QString
41a53180 T _ZN6ZPopup20setInstructFontColorERK6QColor
41a51dcc T _ZN6ZPopup20setTransparentConnerEv
41a95670 T _ZN6ZPopup21signalClearKeyPressedEv
41a51770 T _ZN6ZPopup22getBodyAvailableHeightEv
41a94ea0 T _ZN6ZPopup2trEPKc
41a94ef4 T _ZN6ZPopup2trEPKcS1_
41a53630 T _ZN6ZPopup4doneEi
41a50e24 T _ZN6ZPopup4execEv
41a50f3c T _ZN6ZPopup4showEv
41a53634 T _ZN6ZPopup6acceptEv
41a53638 T _ZN6ZPopup6rejectEv
41a54c4c T _ZN6ZPopup8doLayoutEb
41a50ab0 T _ZN6ZPopup8getTitleEv
41a50aa4 T _ZN6ZPopup8setTitleERK7QString
41a51014 T _ZN6ZPopup9enableAiaEb
41a5158c T _ZN6ZPopup9hideEventEP10QHideEvent
41a5243c T _ZN6ZPopup9showEventEP10QShowEvent
41a54d20 T _ZN6ZPopupC1ENS_12POPUP_TYPE_EEP7QWidgetPKcbij
41a5525c T _ZN6ZPopupC2ENS_12POPUP_TYPE_EEP7QWidgetPKcbij
41a55a10 T _ZN6ZPopupD0Ev
41a55b24 T _ZN6ZPopupD1Ev
41a55c30 T _ZN6ZPopupD2Ev
         U _ZN7QBitmapaSERK6QImage
         U _ZN7QBitmapaSERKS_
         U _ZN7QBitmapC1EiibN7QPixmap12OptimizationE
         U _ZN7QBitmapC1ERK5QSizebN7QPixmap12OptimizationE
         U _ZN7QBitmapC1ERK7QStringPKc
         U _ZN7QBitmapC1Ev
         U _ZN7QBufferC1E6QArrayIcE
         U _ZN7QBufferC1Ev
         U _ZN7QCursor3posEv
         U _ZN7QCursoraSERKS_
         U _ZN7QCursorC1Ev
         U _ZN7QCursorD1Ev
         U _ZN7QDialog10closeEventEP11QCloseEvent
         U _ZN7QDialog10setDefaultEP11QPushButton
         U _ZN7QDialog11resizeEventEP12QResizeEvent
         U _ZN7QDialog11setGeometryEiiii
         U _ZN7QDialog11setGeometryERK5QRect
         U _ZN7QDialog13keyPressEventEP9QKeyEvent
         U _ZN7QDialog16staticMetaObjectEv
         U _ZN7QDialog4doneEi
         U _ZN7QDialog4execEv
         U _ZN7QDialog4hideEv
         U _ZN7QDialog4moveEii
         U _ZN7QDialog4showEv
         U _ZN7QDialog6acceptEv
         U _ZN7QDialog6rejectEv
         U _ZN7QDialog6resizeEii
         U _ZN7QDialogC2EP7QWidgetPKcbj
         U _ZN7QDialogD2Ev
         U _ZN7QGArray10deleteDataEPNS_10array_dataE
         U _ZN7QGArray10setRawDataEPKcj
         U _ZN7QGArray12resetRawDataEPKcj
         U _ZN7QGArray4fillEPKcij
         U _ZN7QGArray6assignERKS_
         U _ZN7QGArray6resizeEj
         U _ZN7QGArray7newDataEv
         U _ZN7QGArray9duplicateEPKcj
         U _ZN7QGArray9duplicateERKS_
         U _ZN7QGArrayC2Ei
         U _ZN7QGArrayC2ERKS_
         U _ZN7QGArrayC2Ev
         U _ZN7QGArrayD2Ev
         U _ZN7QLayout10setEnabledEb
         U _ZN7QLayout13setResizeModeENS_10ResizeModeE
         U _ZN7QLayout8activateEv
         U _ZN7QObject10childEventEP11QChildEvent
         U _ZN7QObject10disconnectEPKS_PKcS1_S3_
         U _ZN7QObject10startTimerEi
         U _ZN7QObject10timerEventEP11QTimerEvent
         U _ZN7QObject11eventFilterEPS_P6QEvent
         U _ZN7QObject11insertChildEPS_
         U _ZN7QObject11removeChildEPS_
         U _ZN7QObject12blockSignalsEb
         U _ZN7QObject13connectNotifyEPKc
         U _ZN7QObject14initMetaObjectEv
         U _ZN7QObject15activate_signalEPKc
         U _ZN7QObject15activate_signalEPKci
         U _ZN7QObject16checkConnectArgsEPKcPKS_S1_
         U _ZN7QObject16disconnectNotifyEPKc
         U _ZN7QObject16staticMetaObjectEv
         U _ZN7QObject17removeEventFilterEPKS_
         U _ZN7QObject18installEventFilterEPKS_
         U _ZN7QObject20activate_signal_boolEPKcb
         U _ZN7QObject20badSuperclassWarningEPKcS1_
         U _ZN7QObject22activate_signal_strrefEPKcRK7QString
         U _ZN7QObject2trEPKcS1_
         U _ZN7QObject5eventEP6QEvent
         U _ZN7QObject7connectEPKS_PKcS1_S3_
         U _ZN7QObject7setNameEPKc
         U _ZN7QObject9killTimerEi
         U _ZN7QObject9queryListEPKcS1_bb
         U _ZN7QObjectC2EPS_PKc
         U _ZN7QObjectD2Ev
         U _ZN7QPixmap10grabWidgetEP7QWidgetiiii
         U _ZN7QPixmap10grabWindowEjiiii
         U _ZN7QPixmap10setRawDataEPhiiiibi
         U _ZN7QPixmap12loadFromDataEPKhjPKcNS_9ColorModeE
         U _ZN7QPixmap16convertFromImageERK6QImageNS_9ColorModeE
         U _ZN7QPixmap4fillEPK7QWidgetii
         U _ZN7QPixmap4fillERK6QColor
         U _ZN7QPixmap6detachEv
         U _ZN7QPixmap6resizeEii
         U _ZN7QPixmap7setMaskERK7QBitmap
         U _ZN7QPixmap8setAlphaEi
         U _ZN7QPixmapaSERKS_
         U _ZN7QPixmapC1EiiiNS_12OptimizationE
         U _ZN7QPixmapC1EPhiiiibi
         U _ZN7QPixmapC1EPPKc
         U _ZN7QPixmapC1ERK5QSizeiNS_12OptimizationE
         U _ZN7QPixmapC1ERK7QStringPKcNS_9ColorModeE
         U _ZN7QPixmapC1ERKS_
         U _ZN7QPixmapC1Ev
         U _ZN7QPixmapC2EiiiNS_12OptimizationE
         U _ZN7QPixmapC2EPhiiiibi
         U _ZN7QPixmapC2Ev
         U _ZN7QPixmapD1Ev
         U _ZN7QPixmapD2Ev
         U _ZN7QRegExpaSERKS_
         U _ZN7QRegExpC1ERK7QStringbb
         U _ZN7QRegExpC1Ev
         U _ZN7QRegExpD1Ev
         U _ZN7QRegion9translateEii
         U _ZN7QRegionaSERKS_
         U _ZN7QRegionC1EiiiiNS_10RegionTypeE
         U _ZN7QRegionC1ERK11QPointArrayb
         U _ZN7QRegionC1ERK5QRectNS_10RegionTypeE
         U _ZN7QRegionC1ERKS_
         U _ZN7QRegionC1Ev
         U _ZN7QRegionD1Ev
         U _ZN7QRegionoRERKS_
         U _ZN7QRegionpLERKS_
         U _ZN7QSignal10disconnectEPK7QObjectPKc
         U _ZN7QSignal7connectEPK7QObjectPKc
         U _ZN7QSignal8activateEv
         U _ZN7QSignalC1EP7QObjectPKc
         U _ZN7QSocket10writeBlockEPKcj
         U _ZN7QSocket13connectToHostERK7QStringt
         U _ZN7QSocket2atEi
         U _ZN7QSocket4openEi
         U _ZN7QSocket5closeEv
         U _ZN7QSocket5flushEv
         U _ZN7QSocket5getchEv
         U _ZN7QSocket5putchEi
         U _ZN7QSocket7sn_readEv
         U _ZN7QSocket7ungetchEi
         U _ZN7QSocket8readLineEPcj
         U _ZN7QSocket8readLineEv
         U _ZN7QSocket8sn_writeEv
         U _ZN7QSocket9readBlockEPcj
         U _ZN7QSocket9setSocketEi
         U _ZN7QString10fromLatin1EPKci
         U _ZN7QString11shared_nullE
         U _ZN7QString14makeSharedNullEv
         U _ZN7QString15setUnicodeCodesEPKtj
         U _ZN7QString4fillE5QChari
         U _ZN7QString4nullE
         U _ZN7QString5subatEj
         U _ZN7QString6insertEj5QChar
         U _ZN7QString6insertEjRKS_
         U _ZN7QString6numberEdci
         U _ZN7QString6numberEii
         U _ZN7QString6removeEjj
         U _ZN7QString6setNumEli
         U _ZN7QString6setNumEmi
         U _ZN7QString7replaceERK7QRegExpRKS_
         U _ZN7QString7sprintfEPKcz
         U _ZN7QString8fromUtf8EPKci
         U _ZN7QString8truncateEj
         U _ZN7QStringaSEPKc
         U _ZN7QStringaSERK8QCString
         U _ZN7QStringaSERKS_
         U _ZN7QStringC1E5QChar
         U _ZN7QStringC1EPK5QCharj
         U _ZN7QStringC1EPKc
         U _ZN7QStringC1ERK6QArrayIcE
         U _ZN7QStringC1ERKS_
         U _ZN7QStringpLE5QChar
         U _ZN7QStringpLEc
         U _ZN7QStringpLEPKc
         U _ZN7QStringpLERK8QCString
         U _ZN7QStringpLERKS_
         U _ZN7QThread9postEventEP7QObjectP6QEvent
         U _ZN7QWidget10adjustSizeEv
         U _ZN7QWidget10clearFocusEv
         U _ZN7QWidget10closeEventEP11QCloseEvent
         U _ZN7QWidget10enterEventEP6QEvent
         U _ZN7QWidget10fontChangeERK5QFont
         U _ZN7QWidget10leaveEventEP6QEvent
         U _ZN7QWidget10paintEventEP11QPaintEvent
         U _ZN7QWidget10setCaptionERK7QString
         U _ZN7QWidget10setEnabledEb
         U _ZN7QWidget10setPaletteERK8QPalette
         U _ZN7QWidget10showNormalEv
         U _ZN7QWidget10updateMaskEv
         U _ZN7QWidget10wheelEventEP11QWheelEvent
         U _ZN7QWidget11customEventEP12QCustomEvent
         U _ZN7QWidget11resizeEventEP12QResizeEvent
         U _ZN7QWidget11setAutoMaskEb
         U _ZN7QWidget11setGeometryEiiii
         U _ZN7QWidget11setGeometryERK5QRect
         U _ZN7QWidget11setIconTextERK7QString
         U _ZN7QWidget11styleChangeER6QStyle
         U _ZN7QWidget11unsetCursorEv
         U _ZN7QWidget12focusInEventEP11QFocusEvent
         U _ZN7QWidget12setFixedSizeEii
         U _ZN7QWidget12setFixedSizeERK5QSize
         U _ZN7QWidget12setMorphModeE15MORPHING_MODE_Ei
         U _ZN7QWidget13enabledChangeEb
         U _ZN7QWidget13focusOutEventEP11QFocusEvent
         U _ZN7QWidget13keyPressEventEP9QKeyEvent
         U _ZN7QWidget13paletteChangeERK8QPalette
         U _ZN7QWidget13setFixedWidthEi
         U _ZN7QWidget13setFocusProxyEPS_
         U _ZN7QWidget13setSizePolicyE11QSizePolicy
         U _ZN7QWidget13showMaximizedEv
         U _ZN7QWidget13showMinimizedEv
         U _ZN7QWidget14initMetaObjectEv
         U _ZN7QWidget14mouseMoveEventEP11QMouseEvent
         U _ZN7QWidget14setAcceptDropsEb
         U _ZN7QWidget14setFixedHeightEi
         U _ZN7QWidget14setFocusPolicyENS_11FocusPolicyE
         U _ZN7QWidget14setMaximumSizeEii
         U _ZN7QWidget14setMinimumSizeEii
         U _ZN7QWidget14updateGeometryEv
         U _ZN7QWidget15keyReleaseEventEP9QKeyEvent
         U _ZN7QWidget15mousePressEventEP11QMouseEvent
         U _ZN7QWidget15setActiveWindowEv
         U _ZN7QWidget15setFadeoverModeEN2Qt12FadeoverModeE
         U _ZN7QWidget15setModalEditingEb
         U _ZN7QWidget16setMouseTrackingEb
         U _ZN7QWidget16setSizeIncrementEii
         U _ZN7QWidget16staticMetaObjectEv
         U _ZN7QWidget17mouseReleaseEventEP11QMouseEvent
         U _ZN7QWidget17setBackgroundModeENS_14BackgroundModeE
         U _ZN7QWidget17setKeyCompressionEb
         U _ZN7QWidget17setMicroFocusHintEiiiib
         U _ZN7QWidget17setUpdatesEnabledEb
         U _ZN7QWidget18focusNextPrevChildEb
         U _ZN7QWidget18setBackgroundColorERK6QColor
         U _ZN7QWidget18setFontPropagationENS_15PropagationModeE
         U _ZN7QWidget19setBackgroundPixmapERK7QPixmap
         U _ZN7QWidget21backgroundColorChangeERK6QColor
         U _ZN7QWidget21mouseDoubleClickEventEP11QMouseEvent
         U _ZN7QWidget21setPalettePropagationENS_15PropagationModeE
         U _ZN7QWidget22backgroundPixmapChangeERK7QPixmap
         U _ZN7QWidget23setOrientationLandscapeEb
         U _ZN7QWidget4findEj
         U _ZN7QWidget4hideEv
         U _ZN7QWidget4moveEii
         U _ZN7QWidget4showEv
         U _ZN7QWidget5closeEb
         U _ZN7QWidget5eraseEiiii
         U _ZN7QWidget5eraseERK7QRegion
         U _ZN7QWidget5eventEP6QEvent
         U _ZN7QWidget5lowerEv
         U _ZN7QWidget5raiseEv
         U _ZN7QWidget6createEjbb
         U _ZN7QWidget6polishEv
         U _ZN7QWidget6resizeEii
         U _ZN7QWidget6scrollEii
         U _ZN7QWidget6scrollEiiRK5QRect
         U _ZN7QWidget6updateEiiii
         U _ZN7QWidget6updateEv
         U _ZN7QWidget7destroyEbb
         U _ZN7QWidget7repaintEiiiib
         U _ZN7QWidget7repaintERK7QRegionb
         U _ZN7QWidget7setFontERK5QFont
         U _ZN7QWidget7setIconERK7QPixmap
         U _ZN7QWidget7setMaskERK7QBitmap
         U _ZN7QWidget7setMaskERK7QRegion
         U _ZN7QWidget7setNameEPKc
         U _ZN7QWidget8qwsEventEP8QWSEvent
         U _ZN7QWidget8reparentEPS_jRK6QPointb
         U _ZN7QWidget8reparentEPS_RK6QPointb
         U _ZN7QWidget8setCRectERK5QRect
         U _ZN7QWidget8setFocusEv
         U _ZN7QWidget8setFRectERK5QRect
         U _ZN7QWidget8setStyleEP6QStyle
         U _ZN7QWidget9focusDataEv
         U _ZN7QWidget9hideEventEP10QHideEvent
         U _ZN7QWidget9moveEventEP10QMoveEvent
         U _ZN7QWidget9setCursorERK7QCursor
         U _ZN7QWidget9setWFlagsEj
         U _ZN7QWidget9setWStateEj
         U _ZN7QWidget9showEventEP10QShowEvent
         U _ZN7QWidgetC2EPS_PKcj
         U _ZN7QWidgetD2Ev
41a3e148 T _ZN7ZButton10drawButtonEP8QPainter
41a3d2a0 T _ZN7ZButton10isZEnabledEv
41a3ecc4 T _ZN7ZButton10setEnabledEb
41a3e998 T _ZN7ZButton12focusInEventEP11QFocusEvent
41a3ed04 T _ZN7ZButton13enableMarqueeEb
41a3ec7c T _ZN7ZButton13focusOutEventEP11QFocusEvent
41a3db2c T _ZN7ZButton15drawButtonLabelEP8QPainter
41a3e6a0 T _ZN7ZButton15keyReleaseEventEP9QKeyEvent
41a3e990 T _ZN7ZButton16getMarqueeDirectEv
41a3ce2c T _ZN7ZButton16setTitlePositionENS_13TitlePositionE
41a3e708 T _ZN7ZButton6setNumEi
41a3ecd8 T _ZN7ZButton7setFontERK5QFont
41a3d0dc T _ZN7ZButton7setTextERK7QString
41a3d2b8 T _ZN7ZButton8setTitleERK7QString
41a3d14c T _ZN7ZButton9setPixmapERK7QPixmap
41959da4 T _ZN7ZCanvas10removeItemEP11ZCanvasItem
41959de4 T _ZN7ZCanvas10removeViewEP11ZCanvasView
41954d18 T _ZN7ZCanvas10setChangedERK5QRect
41959d7c T _ZN7ZCanvas12addAnimationEP11ZCanvasItem
41954cd0 T _ZN7ZCanvas13setAllChangedEv
4195bbc8 T _ZN7ZCanvas14addItemToChunkEP11ZCanvasItemii
41954ed4 T _ZN7ZCanvas14drawBackgroundER8QPainterRK5QRect
41955134 T _ZN7ZCanvas14drawForegroundER8QPainterRK5QRect
41a7e418 T _ZN7ZCanvas14initMetaObjectEv
41959dc4 T _ZN7ZCanvas15removeAnimationEP11ZCanvasItem
41954e10 T _ZN7ZCanvas15setChangedChunkEii
41954c38 T _ZN7ZCanvas15setUpdatePeriodEi
41954ba0 T _ZN7ZCanvas16setAdvancePeriodEi
41a7e2a8 T _ZN7ZCanvas16staticMetaObjectEv
41959b90 T _ZN7ZCanvas18setBackgroundColorERK6QColor
419551ac T _ZN7ZCanvas18setDoubleBufferingEb
4195b2d8 T _ZN7ZCanvas19removeItemFromChunkEP11ZCanvasItemii
41959aec T _ZN7ZCanvas19setBackgroundPixmapERK7QPixmap
4195b938 T _ZN7ZCanvas24addItemToChunkContainingEP11ZCanvasItemii
41954e78 T _ZN7ZCanvas25setChangedChunkContainingEii
4195b110 T _ZN7ZCanvas29removeItemFromChunkContainingEP11ZCanvasItemii
4195a990 T _ZN7ZCanvas6resizeEii
4195a74c T _ZN7ZCanvas6retuneEii
4195e834 T _ZN7ZCanvas6updateEv
41959d90 T _ZN7ZCanvas7addItemEP11ZCanvasItem
41959cc8 T _ZN7ZCanvas7addViewEP11ZCanvasView
41959dfc T _ZN7ZCanvas7advanceEv
41a7e4a4 T _ZN7ZCanvas7resizedEv
419552c4 T _ZN7ZCanvas7setTileEiii
419551b4 T _ZN7ZCanvas8setTilesE7QPixmapiiii
4195a344 T _ZN7ZCanvasC1E7QPixmapiiii
4195a50c T _ZN7ZCanvasC1Eii
4195a63c T _ZN7ZCanvasC1EP7QObjectPKc
4195a428 T _ZN7ZCanvasC2E7QPixmapiiii
4195a5a4 T _ZN7ZCanvasC2Eii
4195a6c4 T _ZN7ZCanvasC2EP7QObjectPKc
4195c360 T _ZN7ZCanvasD0Ev
4195c778 T _ZN7ZCanvasD1Ev
4195cb88 T _ZN7ZCanvasD2Ev
418ebc50 T _ZN7ZConfig10clearGroupERK7QString
418ed59c T _ZN7ZConfig10writeEntryERK7QStringS2_b
418ed620 T _ZN7ZConfig10writeEntryERK7QStringS2_d
418ed738 T _ZN7ZConfig10writeEntryERK7QStringS2_i
418ed6b4 T _ZN7ZConfig10writeEntryERK7QStringS2_j
418ed7bc T _ZN7ZConfig10writeEntryERK7QStringS2_Pc
418ed480 T _ZN7ZConfig10writeEntryERK7QStringS2_RK11QStringListRK5QChar
418eccd0 T _ZN7ZConfig10writeEntryERK7QStringS2_S2_
418e9b10 T _ZN7ZConfig11groupExistsERK7QString
418ecaec T _ZN7ZConfig11removeEntryERK7QStringS2_
418eca5c T _ZN7ZConfig12readNumEntryERK7QStringS2_i
418eb2dc T _ZN7ZConfig12reReadConfigEv
418ec938 T _ZN7ZConfig13readBoolEntryERK7QStringS2_b
418ec864 T _ZN7ZConfig13readListEntryERK7QStringS2_RK5QChar
418ec9cc T _ZN7ZConfig13readUIntEntryERK7QStringS2_j
418ec4ec T _ZN7ZConfig15readEntryDirectERK7QStringS2_S2_
418e9158 T _ZN7ZConfig16getGroupsKeyListER11QStringList
418e9004 T _ZN7ZConfig19getSettingDirectoryEv
418e8de4 T _ZN7ZConfig20initSettingDirectoryEv
418e98e0 T _ZN7ZConfig22getGroupEntriesKeyListERK7QString
418ec00c T _ZN7ZConfig5flushEv
418ec83c T _ZN7ZConfig9readEntryERK7QStringS2_S2_
418eb440 T _ZN7ZConfigC1ERK7QStringb
418eb49c T _ZN7ZConfigC2ERK7QStringb
418ec058 T _ZN7ZConfigD0Ev
418ec1e4 T _ZN7ZConfigD1Ev
418ec368 T _ZN7ZConfigD2Ev
418f26cc T _ZN7ZGlobal10getCst1_1REv
418f2880 T _ZN7ZGlobal10getCst3_1REv
418f28bc T _ZN7ZGlobal10getCst3_2REv
418f2824 T _ZN7ZGlobal10getCst3_3REv
418f3bc4 T _ZN7ZGlobal10getGNBRectEv
418f364c T _ZN7ZGlobal10getHeaderREb
418f40b4 T _ZN7ZGlobal10getPaddingENS_11PaddingTypeE
418f3618 T _ZN7ZGlobal10getScreenREv
418f38c8 T _ZN7ZGlobal11getContentREb
418f26e0 T _ZN7ZGlobal11getCst2a_1REv
418f2734 T _ZN7ZGlobal11getCst2a_2REv
418f2774 T _ZN7ZGlobal11getCst2b_1REv
418f27b0 T _ZN7ZGlobal11getCst2b_2REv
418f286c T _ZN7ZGlobal11getCst2c_2REv
418f2970 T _ZN7ZGlobal11getCst3a_1REv
418f2984 T _ZN7ZGlobal11getCst3a_2REv
418f29fc T _ZN7ZGlobal11getCst3a_3REv
418f2ae8 T _ZN7ZGlobal11getCst3b_1REv
418f2aa8 T _ZN7ZGlobal11getCst3b_2REv
418f2a94 T _ZN7ZGlobal11getCst3b_3REv
418f2b78 T _ZN7ZGlobal11getCst3c_1REv
418f2b8c T _ZN7ZGlobal11getCst3c_2REv
418f2bd0 T _ZN7ZGlobal11getCst3c_3REv
418f2c70 T _ZN7ZGlobal11getCst4a_1REv
418f2cd8 T _ZN7ZGlobal11getCst4a_2REv
418f2c98 T _ZN7ZGlobal11getCst4a_3REv
418f2c84 T _ZN7ZGlobal11getCst4a_4REv
418f2dac T _ZN7ZGlobal11getCst4b_1REv
418f2dd4 T _ZN7ZGlobal11getCst4b_2REv
418f2dc0 T _ZN7ZGlobal11getCst4b_4REv
418f3250 T _ZN7ZGlobal11getDlgA1_1REv
418f3458 T _ZN7ZGlobal11getDlgB1_1REv
418f346c T _ZN7ZGlobal11getDlgB2_1REv
418f2e68 T _ZN7ZGlobal11getDlgCstLREv
418f305c T _ZN7ZGlobal11getDlgCstMREv
418f3150 T _ZN7ZGlobal11getDlgCstSREv
418f3c68 T _ZN7ZGlobal11getFontSizeE15EZX_FONT_SIZE_T
418f40cc T _ZN7ZGlobal11getVSpacingENS_12VSpacingTypeE
418f3264 T _ZN7ZGlobal12getDlgA2a_1REv
418f32b8 T _ZN7ZGlobal12getDlgA2b_1REv
418f32f4 T _ZN7ZGlobal12getDlgA3a_1REv
418f3330 T _ZN7ZGlobal12getDlgA3a_3REv
418f3378 T _ZN7ZGlobal12getDlgA3b_1REv
418f33b4 T _ZN7ZGlobal12getDlgA3b_3REv
418f33fc T _ZN7ZGlobal12getDlgA3c_1REv
418f3410 T _ZN7ZGlobal12getDlgA3c_3REv
418f2ee8 T _ZN7ZGlobal12getDlgLargeREv
418f3190 T _ZN7ZGlobal12getDlgSmallREv
418f3c08 T _ZN7ZGlobal12getLineSpaceEv
418f2ea8 T _ZN7ZGlobal13getDlgTitleLREv
418f301c T _ZN7ZGlobal13getDlgTitleMREv
418f3110 T _ZN7ZGlobal13getDlgTitleSREv
418f3c10 T _ZN7ZGlobal13getLineHeightEv
418f3bf4 T _ZN7ZGlobal13getStatusBarREv
418f3638 T _ZN7ZGlobal14getDesktopRectEv
418f3b44 T _ZN7ZGlobal14getSubContentREv
418f34c0 T _ZN7ZGlobal14mapFromGlobalREP7QWidget5QRect
418f2df4 T _ZN7ZGlobal15getDlgLargeConREv
418f309c T _ZN7ZGlobal15getDlgSmallConREv
418f2fa8 T _ZN7ZGlobal16getDlgMiddleConREv
418f3bdc T _ZN7ZGlobal17getMainWidgetRectEv
418f3974 T _ZN7ZGlobal7getAIAREv
418f37c8 T _ZN7ZGlobal7getCstREv
418f3564 T _ZN7ZGlobal8diffRectE5QRectS0_
418f3ac0 T _ZN7ZGlobal8getHomeREb
41a0b1d4 T _ZN7ZHeader10headerSizeENS_11HEADER_TYPEE
41a0af70 T _ZN7ZHeader10paintEventEP11QPaintEvent
41a0b10c T _ZN7ZHeader10setPaletteERK8QPalette
41a0afc8 T _ZN7ZHeader11resizeEventEP12QResizeEvent
41a0b0f4 T _ZN7ZHeader12changeStatusENS_13HEADER_STATUSEi
41a08c44 T _ZN7ZHeader12getPrimTitleEv
41a0b108 T _ZN7ZHeader12getStatusValENS_13HEADER_STATUSE
41a0ac24 T _ZN7ZHeader12getTitleIconEv
41a0b044 T _ZN7ZHeader12registerInfoERKNS_15AppStatusInfo_SE
41a0ad54 T _ZN7ZHeader12setPrimTitleERK7QString
41a0b06c T _ZN7ZHeader12switchHeaderENS_11HEADER_TYPEE
41a0b1c8 T _ZN7ZHeader13isTruncEnableEv
41a0b218 T _ZN7ZHeader13setMeterRangeEii
41a0b298 T _ZN7ZHeader13setMeterValueEi
41a08c60 T _ZN7ZHeader14getSecondTitleEv
41a90988 T _ZN7ZHeader14initMetaObjectEv
41a0ae38 T _ZN7ZHeader14setSecondTitleERK7QString
41a0b1bc T _ZN7ZHeader14setTruncEnableEb
41a0b058 T _ZN7ZHeader14unregisterInfoENS_13HEADER_STATUSE
41a06f64 T _ZN7ZHeader15AppStatusInfo_SC1Ev
41a06f58 T _ZN7ZHeader15AppStatusInfo_SC2Ev
41a07044 T _ZN7ZHeader15AppStatusInfo_SD1Ev
41a06f70 T _ZN7ZHeader15AppStatusInfo_SD2Ev
41a905e4 T _ZN7ZHeader16staticMetaObjectEv
41a0b380 T _ZN7ZHeader9hideMeterEv
41a0b318 T _ZN7ZHeader9showMeterEv
41a0a424 T _ZN7ZHeaderC1ENS_11HEADER_TYPEEP7QWidgetPKcj
41a0a5bc T _ZN7ZHeaderC1EP7QWidgetPKcj
41a0a4f0 T _ZN7ZHeaderC2ENS_11HEADER_TYPEEP7QWidgetPKcj
41a0a678 T _ZN7ZHeaderC2EP7QWidgetPKcj
41a0aa2c T _ZN7ZHeaderD0Ev
41a0a8b0 T _ZN7ZHeaderD1Ev
41a0a734 T _ZN7ZHeaderD2Ev
4186c718 T _ZN7ZRegExpaSERKS_
419c44c8 T _ZN7ZSlider10paintEventEP11QPaintEvent
419c5688 T _ZN7ZSlider10setEnabledEb
419c3520 T _ZN7ZSlider10setPaletteERK8QPalette
419c2e38 T _ZN7ZSlider10updateSkinEb
419c4158 T _ZN7ZSlider11paintSliderEP8QPainterRK5QRect
419c4430 T _ZN7ZSlider11rangeChangeEv
419c438c T _ZN7ZSlider11resizeEventEP12QResizeEvent
419c55e4 T _ZN7ZSlider11setLineStepEi
419c559c T _ZN7ZSlider11setMaxValueEi
419c556c T _ZN7ZSlider11setMinValueEi
419c5614 T _ZN7ZSlider11setPageStepEi
419c43bc T _ZN7ZSlider11valueChangeEv
419c518c T _ZN7ZSlider12focusInEventEP11QFocusEvent
419c5554 T _ZN7ZSlider12setThicknessEi
41a89ea4 T _ZN7ZSlider12valueChangedEi
419c5160 T _ZN7ZSlider13focusOutEventEP11QFocusEvent
419c51b8 T _ZN7ZSlider13keyPressEventEP9QKeyEvent
41a89e18 T _ZN7ZSlider14initMetaObjectEv
419c34ec T _ZN7ZSlider14setOrientationEN2Qt11OrientationE
419c53c4 T _ZN7ZSlider15keyReleaseEventEP9QKeyEvent
41a89b40 T _ZN7ZSlider16staticMetaObjectEv
419c553c T _ZN7ZSlider8setValueEi
419c5648 T _ZN7ZSlider9showThumbEb
419c3650 T _ZN7ZSliderC1EiiiiNS_9IndicatorEN2Qt11OrientationEP7QWidgetPKcN12ZSkinService11WidgetClsIDE
419c39e8 T _ZN7ZSliderC1ENS_9IndicatorEN2Qt11OrientationEP7QWidgetPKcN12ZSkinService11WidgetClsIDE
419c3d48 T _ZN7ZSliderC1EP7QWidgetPKcN12ZSkinService11WidgetClsIDE
419c381c T _ZN7ZSliderC2EiiiiNS_9IndicatorEN2Qt11OrientationEP7QWidgetPKcN12ZSkinService11WidgetClsIDE
419c3b98 T _ZN7ZSliderC2ENS_9IndicatorEN2Qt11OrientationEP7QWidgetPKcN12ZSkinService11WidgetClsIDE
419c3ed8 T _ZN7ZSliderC2EP7QWidgetPKcN12ZSkinService11WidgetClsIDE
419c2720 T _ZN7ZSliderD0Ev
419c25ec T _ZN7ZSliderD1Ev
419c24b8 T _ZN7ZSliderD2Ev
41a189ac T _ZN7ZWidget10drawBorderER8QPainterPK5QRect
41a18a38 T _ZN7ZWidget10updateSkinEb
41a19018 T _ZN7ZWidget13getScreenFSBAEv
41a18e10 T _ZN7ZWidget13setScreenFSBAER7QPixmapi23PIXMAP_STRETCH_POLICY_E
41a189d8 T _ZN7ZWidget14drawBackgroundER8QPainterPK5QRectb
41a92060 T _ZN7ZWidget14initMetaObjectEv
41a192bc T _ZN7ZWidget15setResizeMethodENS_12ResizeMethodE
41a192d4 T _ZN7ZWidget15slotResizeChildEv
41a91f34 T _ZN7ZWidget16staticMetaObjectEv
41a19120 T _ZN7ZWidget17setInternalWidgetEb
41a19044 T _ZN7ZWidget17setScreenSkinFileE7QString
41a18a1c T _ZN7ZWidget18setScrolledInPanelEb
41a19100 T _ZN7ZWidget20getScreenSkinServiceEv
41a18c9c T _ZN7ZWidget23cacheTransparentBgImageEb
41a18980 T _ZN7ZWidget23drawBackgroundAndBorderER8QPainterPK5QRect
41a18cf4 T _ZN7ZWidget24getBgImageForTransparentERb
41a192d8 T _ZN7ZWidget24setScreenLayoutDirectionENS_15LayoutDirectionE
41a18c58 T _ZN7ZWidget25setAutoAdjustWidthInPanelEb
41a18a70 T _ZN7ZWidgetC1EP7QWidgetPKcjN12ZSkinService11WidgetClsIDE
41a18b64 T _ZN7ZWidgetC2EP7QWidgetPKcjN12ZSkinService11WidgetClsIDE
41a1880c T _ZN7ZWidgetD0Ev
41a1868c T _ZN7ZWidgetD1Ev
41a1850c T _ZN7ZWidgetD2Ev
4187c2a0 T _ZN8AM_Mutex10setNotBusyEv
4187c328 T _ZN8AM_Mutex6isBusyEv
4187c0b8 T _ZN8AM_Mutex7setBusyEv
41a37f88 T _ZN8EZXStyle13drawFocusRectEP8QPainterRK5QRectRK11QColorGroupPK6QColorb
41a37fac T _ZN8EZXStyle13drawIndicatorEP8QPainteriiiiRK11QColorGroupibb
41a922d8 T _ZN8EZXStyle14initMetaObjectEv
41a381c0 T _ZN8EZXStyle15scrollBarExtentEv
41a382d8 T _ZN8EZXStyle16scrollBarMetricsEPK10QScrollBarRiS3_S3_S3_
41a92250 T _ZN8EZXStyle16staticMetaObjectEv
41a38434 T _ZN8EZXStyle17zscrollBarMetricsEPK10ZScrollBarRiS3_S3_S3_
41a39ce4 T _ZN8EZXStyle19zscrollBarPointOverEPK10ZScrollBariRK6QPoint
41a385ac T _ZN8EZXStyle21drawScrollBarControlsEP8QPainterPK10QScrollBarijj
41a380b8 T _ZN8EZXStyle22drawExclusiveIndicatorEP8QPainteriiiiRK11QColorGroupbbb
41a3910c T _ZN8EZXStyle22drawZScrollBarControlsEP8QPainterPK10ZScrollBarijj
41a921ac T _ZN8EZXStyle2trEPKc
41a92200 T _ZN8EZXStyle2trEPKcS1_
41ad2ad8 B _ZN8EZXStyle7metaObjE
41a37f3c T _ZN8EZXStyleC1Ei
41a37ef0 T _ZN8EZXStyleC2Ei
41a92428 W _ZN8EZXStyleD0Ev
41a923e0 W _ZN8EZXStyleD1Ev
41a6a68c T _ZN8KbMatrix10getSoftKeyEv
         U _ZN8QCString7replaceERK7QRegExpPKc
         U _ZN8QCString7sprintfEPKcz
         U _ZN8QCStringC1EPKc
         U _ZN8QCStringpLEPKc
         U _ZN8QGVector12compareItemsEPvS0_
         U _ZN8QGVector4readER11QDataStreamRPv
         U _ZN8QGVector4sortEv
         U _ZN8QGVector5clearEv
         U _ZN8QGVector6insertEjPv
         U _ZN8QGVector6removeEj
         U _ZN8QGVector6resizeEj
         U _ZN8QGVectorC2Ev
         U _ZN8QGVectorD2Ev
         U _ZN8QIconSetC1ERKS_
         U _ZN8QImageIO11imageFormatERK7QString
         U _ZN8QImageIO11setFileNameERK7QString
         U _ZN8QImageIO13setParametersEPKc
         U _ZN8QImageIO4readEv
         U _ZN8QImageIOC1Ev
         U _ZN8QImageIOD1Ev
         U _ZN8QLibrary14queryInterfaceERK5QUuidPP17QUnknownInterface
         U _ZN8QLibraryC1ERK7QString
         U _ZN8QPainter10drawPixmapEiiRK7QPixmapiiii
         U _ZN8QPainter10drawPixmapERK6QPointRK7QPixmap
         U _ZN8QPainter11drawEllipseEiiii
         U _ZN8QPainter11drawPolygonERK11QPointArraybii
         U _ZN8QPainter11setClippingEb
         U _ZN8QPainter11setClipRectERK5QRect
         U _ZN8QPainter11setTabStopsEi
         U _ZN8QPainter13setClipRegionERK7QRegion
         U _ZN8QPainter14setBrushOriginEii
         U _ZN8QPainter15drawTiledPixmapEiiiiRK7QPixmapii
         U _ZN8QPainter3endEv
         U _ZN8QPainter4saveEv
         U _ZN8QPainter5beginEPK12QPaintDevice
         U _ZN8QPainter5beginEPK12QPaintDevicePK7QWidget
         U _ZN8QPainter6rotateEd
         U _ZN8QPainter6setPenEN2Qt8PenStyleE
         U _ZN8QPainter6setPenERK4QPen
         U _ZN8QPainter6setPenERK6QColor
         U _ZN8QPainter7drawPieEiiiiii
         U _ZN8QPainter7restoreEv
         U _ZN8QPainter7setFontERK5QFont
         U _ZN8QPainter8drawLineEiiii
         U _ZN8QPainter8drawRectEiiii
         U _ZN8QPainter8drawTextEiiiiiRK7QStringiP5QRectPPc
         U _ZN8QPainter8drawTextEiiRK7QStringi
         U _ZN8QPainter8fillRectEiiiiRK6QBrush
         U _ZN8QPainter8redirectEP12QPaintDeviceS1_
         U _ZN8QPainter8setBrushEN2Qt10BrushStyleE
         U _ZN8QPainter8setBrushERK6QBrush
         U _ZN8QPainter8setBrushERK6QColor
         U _ZN8QPainter9eraseRectEiiiiRK6QBrush
         U _ZN8QPainter9translateEdd
         U _ZN8QPainterC1EPK12QPaintDevice
         U _ZN8QPainterC1EPK12QPaintDevicePK7QWidget
         U _ZN8QPainterC1Ev
         U _ZN8QPainterD1Ev
         U _ZN8QPalette8setColorEN11QColorGroup9ColorRoleERK6QColor
         U _ZN8QPalette8setColorENS_10ColorGroupEN11QColorGroup9ColorRoleERK6QColor
         U _ZN8QPaletteD1Ev
         U _ZN8QWMatrix6rotateEd
         U _ZN8QWMatrixC1Ev
41863070 T _ZN8UTIL_Res11bigToLittleEj
41863024 T _ZN8UTIL_Res7hashValE7QString
41862de0 T _ZN8UTIL_Res8createIDEPKc
419ffbf4 T _ZN8ZFmwItem12getAlignmentEv
419fff60 T _ZN8ZFmwItem14getSteadyWidthEv
419ffcc0 T _ZN8ZFmwItem6getKeyEv
419ffee0 T _ZN8ZFmwItem7getIconEv
419ffcd8 T _ZN8ZFmwItem7getTextEv
419ffcb8 T _ZN8ZFmwItem7getTypeEv
419ffc04 T _ZN8ZFmwItem8getWidthEv
419fff48 T _ZN8ZFmwItem9getWidgetEv
419faf54 T _ZN8ZJumpBox12setLabelTextERK7QString
419fb2ec T _ZN8ZJumpBox12setMaxLengthEi
419fb2c8 T _ZN8ZJumpBox13getInputFieldEv
419f8f78 T _ZN8ZJumpBox13getLabelWidthEv
419f9e78 T _ZN8ZJumpBox14getJumpBoxSizeEi
419f8c78 T _ZN8ZJumpBox8activateEP9QKeyEvent
419fb2d4 T _ZN8ZJumpBox8lineEditEv
419fbd50 T _ZN8ZJumpBoxC1EP7QWidgetPKcjN12ZSkinService11WidgetClsIDEb
419fbff8 T _ZN8ZJumpBoxC2EP7QWidgetPKcjN12ZSkinService11WidgetClsIDEb
4195ffcc T _ZN8ZListBox10changeItemEPK9ZListItemi
419616d0 T _ZN8ZListBox10getEllpsisENS_14ListItemRegionE
4195fde0 T _ZN8ZListBox10insertItemEPK9ZListItemib
4195fc24 T _ZN8ZListBox10insertItemEPK9ZListItemS2_b
4195fa54 T _ZN8ZListBox10removeItemEi
41961680 T _ZN8ZListBox10setEllpsisE7QStringNS_14ListItemRegionE
41963898 T _ZN8ZListBox10setPaletteERK8QPalette
419671c0 T _ZN8ZListBox10setTopItemEi
41962a84 T _ZN8ZListBox10updateSkinEb
419608ac T _ZN8ZListBox11getItemTypeEv
41a8068c T _ZN8ZListBox11highlightedEP12ZListBoxItem
4196088c T _ZN8ZListBox11itemCheckedEi
41960860 T _ZN8ZListBox11itemCheckedEP9ZListItem
419679ac T _ZN8ZListBox11itemVisibleEi
41967258 T _ZN8ZListBox11itemVisibleEPK9ZListItem
41966454 T _ZN8ZListBox11resizeEventEP12QResizeEvent
41960a04 T _ZN8ZListBox11setItemFontENS_14ListItemRegionEN9ZSkinBase14SelectionStateER5QFont
41960de0 T _ZN8ZListBox11setItemFontENS_14ListItemRegionER5QFontb
419608c8 T _ZN8ZListBox11setItemTypeE7QString
41960034 T _ZN8ZListBox11setSelectedEib
41960068 T _ZN8ZListBox11setSelectedEP9ZListItemb
4195fb90 T _ZN8ZListBox12focusInEventEP11QFocusEvent
41968044 T _ZN8ZListBox12itemsCheckedEv
41961718 T _ZN8ZListBox13enableEllpsisEb
41962088 T _ZN8ZListBox13enableMarqueeENS_14ListItemRegionEb
4195fb2c T _ZN8ZListBox13focusOutEventEP11QFocusEvent
419676b4 T _ZN8ZListBox13keyPressEventEP9QKeyEvent
41a7f99c T _ZN8ZListBox13returnPressedEP12ZListBoxItem
4196711c T _ZN8ZListBox13setBottomItemEi
4195f948 T _ZN8ZListBox13triggerUpdateEb
41a7fcd8 T _ZN8ZListBox14currentChangedEP12ZListBoxItem
41a7f28c T _ZN8ZListBox14initMetaObjectEv
41962128 T _ZN8ZListBox14resetFocusItemEb
4195f8ec T _ZN8ZListBox14setCurrentItemEi
4195f7cc T _ZN8ZListBox14setCurrentItemEib
419679e4 T _ZN8ZListBox14setCurrentItemEP9ZListItem
41960840 T _ZN8ZListBox14showAllSubItemEb
419637e4 T _ZN8ZListBox15getPartialColorEN9ZSkinBase14SelectionStateE
4196790c T _ZN8ZListBox15mousePressEventEP11QMouseEvent
4195f66c T _ZN8ZListBox15setListItemTypeEN9ZListItem12ListItemTypeE
4196369c T _ZN8ZListBox15setPartialColorER6QColorN9ZSkinBase14SelectionStateE
41961768 T _ZN8ZListBox16radioItemCheckedEv
41a80014 T _ZN8ZListBox16selectionChangedEP12ZListBoxItem
41a7e8fc T _ZN8ZListBox16staticMetaObjectEv
41966560 T _ZN8ZListBox18viewportPaintEventEP11QPaintEvent
419638bc T _ZN8ZListBox19viewportResizeEventEP12QResizeEvent
41966cb4 T _ZN8ZListBox20ensureCurrentVisibleEv
419607a8 T _ZN8ZListBox20setDefaultItemHeightEi
41961214 T _ZN8ZListBox21getImageContainerSkinEN9ZSkinBase14SelectionStateE
41967880 T _ZN8ZListBox21mouseDoubleClickEventEP11QMouseEvent
4195f910 T _ZN8ZListBox23viewportMousePressEventEP11QMouseEvent
419638d0 T _ZN8ZListBox29enableHighlightCurItemNoFocusEb
4195f92c T _ZN8ZListBox29viewportMouseDoubleClickEventEP11QMouseEvent
419605f0 T _ZN8ZListBox4sortEb
4195f978 T _ZN8ZListBox5clearEv
419608e8 T _ZN8ZListBox8moveItemEii
41a7f340 T _ZN8ZListBox8selectedEi
41a80350 T _ZN8ZListBox8selectedEP12ZListBoxItem
41a8023c T _ZN8ZListBox8selectedEP12ZSettingItem
41a80464 T _ZN8ZListBox8selectedEP9ZListItem
419607c4 T _ZN8ZListBox8setAlignENS_9ITEMALIGNEi
41960258 T _ZN8ZListBox8takeItemEPK9ZListItem
41967850 T _ZN8ZListBox9checkItemEib
41967780 T _ZN8ZListBox9checkItemEP9ZListItemb
419638c0 T _ZN8ZListBox9hideEventEP10QHideEvent
41960230 T _ZN8ZListBox9showEventEP10QShowEvent
41960df4 T _ZN8ZListBox9textAlignENS_14ListItemRegionEN9ZSkinBase14SelectionStateE
41960fc8 T _ZN8ZListBox9textColorENS_14ListItemRegionEN9ZSkinBase14SelectionStateE
41964574 T _ZN8ZListBoxC1E7QStringP7QWidgetjN12ZSkinService11WidgetClsIDE
41964344 T _ZN8ZListBoxC1EP7QWidgetjN12ZSkinService11WidgetClsIDE
41964648 T _ZN8ZListBoxC2E7QStringP7QWidgetjN12ZSkinService11WidgetClsIDE
4196445c T _ZN8ZListBoxC2EP7QWidgetjN12ZSkinService11WidgetClsIDE
41964830 T _ZN8ZListBoxD0Ev
41964fb0 T _ZN8ZListBoxD1Ev
41965728 T _ZN8ZListBoxD2Ev
419d1078 T _ZN8ZSoftKey10getOptMenuENS_7KEY_IDXE
419d44a0 T _ZN8ZSoftKey10setOptMenuENS_7KEY_IDXEP12ZOptionsMenu
419d1ea4 T _ZN8ZSoftKey10showButtonENS_7KEY_IDXEb
419d1b38 T _ZN8ZSoftKey13setResourceIDENS_7KEY_IDXERK7QStringNS_13TEXT_PRIORITYE
419d11c0 T _ZN8ZSoftKey14setClickedSlotENS_7KEY_IDXEPK7QObjectPKc
419d13fc T _ZN8ZSoftKey14slotBtnPressedENS_7KEY_IDXE
419d2180 T _ZN8ZSoftKey15isButtonEnabledENS_7KEY_IDXE
419d120c T _ZN8ZSoftKey15prevClickedSlotENS_7KEY_IDXE
419d2134 T _ZN8ZSoftKey15setButtonEnableENS_7KEY_IDXEb
419d41c4 T _ZN8ZSoftKey15setTextSelfShowEi
419d13f0 T _ZN8ZSoftKey15slotBtnReleasedENS_7KEY_IDXE
419d21c0 T _ZN8ZSoftKey17enableClickedSlotENS_7KEY_IDXE
419d21fc T _ZN8ZSoftKey18disableClickedSlotENS_7KEY_IDXE
419d2924 T _ZN8ZSoftKey18setBgOverlapPixmapENS_7KEY_IDXERK7QPixmapi
419d2968 T _ZN8ZSoftKey21setTextForOptMenuHideERK7QString
419d2990 T _ZN8ZSoftKey21setTextForOptMenuShowERK7QStringS2_
419d1b80 T _ZN8ZSoftKey7setTextENS_7KEY_IDXERK7QStringNS_13TEXT_PRIORITYE
419d10c0 T _ZN8ZSoftKey8prevTextENS_7KEY_IDXE
419d33a4 T _ZN8ZSoftKeyC1ERK7QStringP7QWidgetS4_
419d3804 T _ZN8ZSoftKeyC2ERK7QStringP7QWidgetS4_
419aa39c T _ZN8ZSpinBox11getTabIndexEv
41879b28 T _ZN9AM_Global10getDirSizeERK7QString
4187878c T _ZN9AM_Global11ensureMkDirERK7QString
41878328 T _ZN9AM_Global11getSetupDirEv
418790d8 T _ZN9AM_Global12getBlockSizeEPKc
41879248 T _ZN9AM_Global12getBlockSizeERK7QString
41878260 T _ZN9AM_Global12getGnbLengthEv
418782a0 T _ZN9AM_Global12getNativeDirEv
418782e4 T _ZN9AM_Global13getPreloadDirEv
418789fc T _ZN9AM_Global14getInstCardDirEv
41878288 T _ZN9AM_Global14getScreenWidthEv
41878290 T _ZN9AM_Global15getScreenLengthEv
41878cc4 T _ZN9AM_Global15isWallPaperFileERK7QString
41879648 T _ZN9AM_Global15sendSmsNoEditorERK7QStringS2_
4187835c T _ZN9AM_Global16getAppWriteAmDirEv
41878214 T _ZN9AM_Global17CMCCFlexBitEnableEv
41878b48 T _ZN9AM_Global17getInstalledQtDirENS_6DeviceE
418792d8 T _ZN9AM_Global18getLauncherChannelEv
41878c08 T _ZN9AM_Global20getInstalledQtTmpDirENS_6DeviceE
418786c8 T _ZN9AM_Global20getInstalledThemeDirEv
41878fe4 T _ZN9AM_Global20systemBusyMessageBoxEv
418792a4 T _ZN9AM_Global28getShakeHandWithPhoneChannelEv
41879a30 T _ZN9AM_Global31sendWapPushMsgToMessagingCenterEPci
41879720 T _ZN9AM_Global7sendSmsERK7QStringS2_
41923018 T _ZN9IM_ResDir14getIMPluginDirEi
41a67500 T _ZN9KbAltList10getSoftKeyEv
         U _ZN9QBitArray4fillEbi
         U _ZN9QBitArray6setBitEj
         U _ZN9QBitArrayC1Ev
         U _ZN9QDateTimeC1ERK5QDate
         U _ZN9QFileInfoC1ERK7QString
         U _ZN9QFileInfoD1Ev
         U _ZN9QGroupBox10childEventEP11QChildEvent
         U _ZN9QGroupBox10fontChangeERK5QFont
         U _ZN9QGroupBox10paintEventEP11QPaintEvent
         U _ZN9QGroupBox10updateMaskEv
         U _ZN9QGroupBox11resizeEventEP12QResizeEvent
         U _ZN9QGroupBox12focusInEventEP11QFocusEvent
         U _ZN9QGroupBox12setAlignmentEi
         U _ZN9QGroupBox15setColumnLayoutEiN2Qt11OrientationE
         U _ZN9QGroupBox16staticMetaObjectEv
         U _ZN9QGroupBox5eventEP6QEvent
         U _ZN9QGroupBox8setTitleERK7QString
         U _ZN9QGroupBoxC2EiN2Qt11OrientationEP7QWidgetPKc
         U _ZN9QGroupBoxC2EiN2Qt11OrientationERK7QStringP7QWidgetPKc
         U _ZN9QGroupBoxC2EP7QWidgetPKc
         U _ZN9QGroupBoxC2ERK7QStringP7QWidgetPKc
         U _ZN9QIODevice10writeBlockERK6QArrayIcE
         U _ZN9QMenuData10insertItemERK7QStringii
         U _ZN9QMenuData14setItemEnabledEib
         U _ZN9QMenuData15insertSeparatorEi
         U _ZN9QWSCursor12systemCursorEi
         U _ZN9QWSServer12sendKeyEventEiiibb
         U _ZN9QWSServer15processKeyEventEiiibb
         U _ZN9QWSServer16sendCaptureEventEv
         U _ZN9QWSServer17setKeyboardFilterEPNS_14KeyboardFilterE
         U _ZN9QWSServer18setKeyboardHandlerEP18QWSKeyboardHandler
         U _ZN9QWSServer20enableFadeBackgroundEb
         U _ZN9QWSSocket16staticMetaObjectEv
         U _ZN9QWSSocket18connectToLocalFileERK7QString
         U _ZN9QWSSocketC1EP7QObjectPKc
         U _ZN9QWSSocketC2EP7QObjectPKc
         U _ZN9QWSSocketD2Ev
418b2678 T _ZN9SETUP_API11getLanguageER7QString
418b277c T _ZN9SETUP_API12getAlertFileE17ENUM_ALERT_TYPE_ER7QStringi
418b292c T _ZN9SETUP_API12getAPVersionER7QString
418b2ab0 T _ZN9SETUP_API12getUSBStatusER17ENUM_USB_STATUS_E
418b28b4 T _ZN9SETUP_API12getWallpaperER7QString
418b2720 T _ZN9SETUP_API13getAlertStyleER18ENUM_ALERT_STYLE_Ei
418b284c T _ZN9SETUP_API14getSoundVolumeE23ENUM_ALERT_SOUND_TYPE_ERii
418b26ac T _ZN9SETUP_API16getActiveProfileERi
418b27e4 T _ZN9SETUP_API17getVibratePatternE17ENUM_ALERT_TYPE_ER19ENUM_VIBRATE_TYPE_Ei
41ad22f0 B _ZN9UTIL_Skin11defaultSkinE
41864cac T _ZN9UTIL_Skin3getEv
41864acc T _ZN9UTIL_Skin4initERK7QStringS2_
41864b7c T _ZN9UTIL_Skin9reloadDefEv
41864b18 T _ZN9UTIL_SkinC1ERK7QStringS2_
41864d50 T _ZN9UTIL_SkinC1Ev
41864cec T _ZN9UTIL_SkinC2ERK7QStringS2_
41864e3c T _ZN9UTIL_SkinC2Ev
418650a0 T _ZN9UTIL_SkinD0Ev
41864fe4 T _ZN9UTIL_SkinD1Ev
41864f28 T _ZN9UTIL_SkinD2Ev
419402f0 T _ZN9ZCheckBox10setCheckedEb
41940294 T _ZN9ZCheckBox11setNoChangeEv
41940404 T _ZN9ZCheckBox16setTitlePositionENS_13TitlePositionE
4194030c T _ZN9ZCheckBox8setTitleERK7QString
4193ff94 T _ZN9ZCheckBoxC1EP7QWidgetPKc
4193fea4 T _ZN9ZCheckBoxC1ERK7QStringP7QWidgetPKc
4193fff4 T _ZN9ZCheckBoxC2EP7QWidgetPKc
4193ff1c T _ZN9ZCheckBoxC2ERK7QStringP7QWidgetPKc
41951950 T _ZN9ZComboBox10changeItemERK7QPixmapi
419528b8 T _ZN9ZComboBox10changeItemERK7QPixmapRK7QStringi
419525ec T _ZN9ZComboBox10changeItemERK7QStringi
419516c8 T _ZN9ZComboBox10insertItemERK7QPixmapi
41951604 T _ZN9ZComboBox10insertItemERK7QPixmapRK7QStringi
41951774 T _ZN9ZComboBox10insertItemERK7QStringi
4195201c T _ZN9ZComboBox10removeItemEi
4195373c T _ZN9ZComboBox10setPaletteERK8QPalette
41953768 T _ZN9ZComboBox10updateSkinEb
41952478 T _ZN9ZComboBox11customEventEP12QCustomEvent
41950384 T _ZN9ZComboBox11eventFilterEP7QObjectP6QEvent
4195037c T _ZN9ZComboBox11resizeEventEP12QResizeEvent
4195312c T _ZN9ZComboBox11setDlgTitleERK7QStringNS_7DlgTypeE
419503cc T _ZN9ZComboBox11setMaxCountEi
41950538 T _ZN9ZComboBox11styleChangeER6QStyle
41a7dfd4 T _ZN9ZComboBox11textChangedERK7QString
41952f4c T _ZN9ZComboBox12drawBorderExEN7ZButton8ItemTypeEP8QPainterPK5QRect
419503ac T _ZN9ZComboBox12setSizeLimitEi
4195044c T _ZN9ZComboBox12setValidatorEPK10QValidator
4195321c T _ZN9ZComboBox12stateChangedEN7ZButton17StateChangeReasonE
419534f8 T _ZN9ZComboBox12titleChangedERK7QString
41952300 T _ZN9ZComboBox13keyPressEventEP9QKeyEvent
419504a8 T _ZN9ZComboBox14clearValidatorEv
41951b74 T _ZN9ZComboBox14setCurrentItemEi
419531e8 T _ZN9ZComboBox14setSoftkeyTextERK7QStringS2_NS_7DlgTypeE
41952fac T _ZN9ZComboBox16drawBackgroundExEN7ZButton8ItemTypeEP8QPainterPK5QRect
41954094 T _ZN9ZComboBox16insertStringListERK11QStringListi
41a7d940 T _ZN9ZComboBox16staticMetaObjectEv
41950518 T _ZN9ZComboBox17setAutoCompletionEb
41953160 T _ZN9ZComboBox18setDlgInstructTextERK7QStringNS_7DlgTypeE
41950440 T _ZN9ZComboBox18setInsertionPolicyENS_6PolicyE
41953180 T _ZN9ZComboBox18setSoftkeyTextLeftERK7QStringNS_7DlgTypeE
419531b4 T _ZN9ZComboBox19setSoftkeyTextRightERK7QStringNS_7DlgTypeE
41952be8 T _ZN9ZComboBox20slotLeftSoftkeyClickEv
41952cf4 T _ZN9ZComboBox21slotRightSoftkeyClickEv
41951f50 T _ZN9ZComboBox5clearEv
419519f0 T _ZN9ZComboBox9showEventEP10QShowEvent
41950d3c T _ZN9ZComboBoxC1EbP7QWidgetPKcb
41950a08 T _ZN9ZComboBoxC1EP7QWidgetPKcb
41950e98 T _ZN9ZComboBoxC2EbP7QWidgetPKcb
41950adc T _ZN9ZComboBoxC2EP7QWidgetPKcb
4194ff94 T _ZN9ZComboBoxD0Ev
4194fe54 T _ZN9ZComboBoxD1Ev
4194fd14 T _ZN9ZComboBoxD2Ev
419785b4 T _ZN9ZFormItem10updateSkinEb
41a825ec T _ZN9ZFormItem16staticMetaObjectEv
419785c0 T _ZN9ZFormItemC1EP7QWidgetPKcjN12ZSkinService11WidgetClsIDE
4197862c T _ZN9ZFormItemC2EP7QWidgetPKcjN12ZSkinService11WidgetClsIDE
41978548 T _ZN9ZFormItemD0Ev
419784e4 T _ZN9ZFormItemD1Ev
41978480 T _ZN9ZFormItemD2Ev
41a3c560 T _ZN9ZGroupBox10childEventEP11QChildEvent
41a3a2e4 T _ZN9ZGroupBox10paintEventEP11QPaintEvent
41a3b878 T _ZN9ZGroupBox10setEnabledEb
41a3adf0 T _ZN9ZGroupBox10setPaletteERK8QPalette
41a3afa4 T _ZN9ZGroupBox11eventFilterEP7QObjectP6QEvent
41a3b05c T _ZN9ZGroupBox11resizeEventEP12QResizeEvent
41a3a2e0 T _ZN9ZGroupBox13keyPressEventEP9QKeyEvent
41a3ad70 T _ZN9ZGroupBox13triggerUpdateEb
41a91bc0 T _ZN9ZGroupBox14initMetaObjectEv
41a3b0c4 T _ZN9ZGroupBox15slotResizeChildEv
41a91c4c T _ZN9ZGroupBox16contentsResizingEPS_ii
41a91938 T _ZN9ZGroupBox16staticMetaObjectEv
41a3ab44 T _ZN9ZGroupBox24getBgImageForTransparentERb
41a3bd10 T _ZN9ZGroupBox5clearEv
41a3c3a8 T _ZN9ZGroupBox6insertEP7ZWidgeti
41a3bbc4 T _ZN9ZGroupBox6removeEi
41a3bc6c T _ZN9ZGroupBox6removeEP7ZWidget
41a3b5c0 T _ZN9ZGroupBox6resizeEii
41a3af28 T _ZN9ZGroupBox8setTitleERK7QString
41a3bb38 T _ZN9ZGroupBox8takeItemEi
41a3baac T _ZN9ZGroupBox8takeItemEP7ZWidget
41a3c1d8 T _ZN9ZGroupBox9showEventEP10QShowEvent
41a3ac18 T _ZN9ZGroupBox9titleSizeEv
41a3b478 T _ZN9ZGroupBoxC1EP7QWidgetbPKcN12ZSkinService11WidgetClsIDE
41a3b310 T _ZN9ZGroupBoxC1ERK7QStringP7QWidgetPKcN12ZSkinService11WidgetClsIDE
41a3b51c T _ZN9ZGroupBoxC2EP7QWidgetbPKcN12ZSkinService11WidgetClsIDE
41a3b3c4 T _ZN9ZGroupBoxC2ERK7QStringP7QWidgetPKcN12ZSkinService11WidgetClsIDE
41a3a15c T _ZN9ZGroupBoxD0Ev
41a39fe0 T _ZN9ZGroupBoxD1Ev
41a39e64 T _ZN9ZGroupBoxD2Ev
419deb40 T _ZN9ZIconView10enterEventEP6QEvent
419dc2e0 T _ZN9ZIconView10insertItemEP13ZIconViewItemS1_
419dce7c T _ZN9ZIconView10selectBtnsEP13ZIconViewItem
419de24c T _ZN9ZIconView10slotUpdateEv
419df5b8 T _ZN9ZIconView10updateSkinEv
419dce40 T _ZN9ZIconView11adjustItemsEv
419dd7b8 T _ZN9ZIconView11eventFilterEP7QObjectP6QEvent
419dd9c0 T _ZN9ZIconView11getDrmImageEv
419dece4 T _ZN9ZIconView11getItemSkinEN9ZSkinBase14SelectionStateE
419decc4 T _ZN9ZIconView11itemCheckedEi
419dcc68 T _ZN9ZIconView11repaintItemEP13ZIconViewItem
419dcde4 T _ZN9ZIconView11resizeEventEP12QResizeEvent
419e23ac T _ZN9ZIconView11sendPackageEv
419dc75c T _ZN9ZIconView11setSelectedEP13ZIconViewItembb
419debc8 T _ZN9ZIconView12drawContentsEP8QPainter
41a8e34c W _ZN9ZIconView12drawContentsEP8QPainteriiii
419e195c T _ZN9ZIconView12focusInEventEP11QFocusEvent
419e04c8 T _ZN9ZIconView12iconAreaSizeEv
419e3de4 T _ZN9ZIconView12insertInGridEP13ZIconViewItem
419e429c T _ZN9ZIconView12itemsCheckedEv
419df56c T _ZN9ZIconView12setShowLabelEb
41a8da68 T _ZN9ZIconView13doubleClickedEP13ZIconViewItem
419e1728 T _ZN9ZIconView13enableMarqueeEb
419dd5a8 T _ZN9ZIconView13focusOutEventEP11QFocusEvent
419dcf8c T _ZN9ZIconView13keyPressEventEP9QKeyEvent
419ddccc T _ZN9ZIconView13makeRowLayoutEP13ZIconViewItemiib
419dd5bc T _ZN9ZIconView13makeRowLayoutEP13ZIconViewItemRi
41a8d954 T _ZN9ZIconView13returnPressedEP13ZIconViewItem
419dcd90 T _ZN9ZIconView13setResizeModeENS_10ResizeModeE
41a8e344 W _ZN9ZIconView14clearSelectionEv
41a8e074 T _ZN9ZIconView14currentChangedEP13ZIconViewItem
41a8e318 W _ZN9ZIconView14setArrangementENS_11ArrangementE
419dcdb0 T _ZN9ZIconView14setAutoArrangeEb
419dc83c T _ZN9ZIconView14setContentsPosEii
419e1aec T _ZN9ZIconView14setCurrentItemEP13ZIconViewItem
41a8e31c W _ZN9ZIconView14setItemTextPosENS_11ItemTextPosE
419deb28 T _ZN9ZIconView14updateContentsEv
419e2108 T _ZN9ZIconView15sendItemPackageEP13ZIconViewItem
419deb5c T _ZN9ZIconView16handleItemChangeEP13ZIconViewItembb
419dc4fc T _ZN9ZIconView16insertItemAtHeadEP13ZIconViewItem
41a8e188 T _ZN9ZIconView16selectionChangedEP13ZIconViewItem
419e24b4 T _ZN9ZIconView16setLandscapeModeEv
41a8e33c W _ZN9ZIconView16setSelectionModeENS_13SelectionModeE
41a8c810 T _ZN9ZIconView16staticMetaObjectEv
419e19f0 T _ZN9ZIconView17ensureItemVisibleEP13ZIconViewItem
419e4abc T _ZN9ZIconView18arrangeItemsInGridEb
419e47bc T _ZN9ZIconView18arrangeItemsInGridERK5QSizeb
41a8d33c T _ZN9ZIconView18mouseButtonClickedEiP13ZIconViewItemRK6QPoint
41a8d4e0 T _ZN9ZIconView18mouseButtonPressedEiP13ZIconViewItemRK6QPoint
41a8d7ec T _ZN9ZIconView18rightButtonClickedEP13ZIconViewItemRK6QPoint
41a8d684 T _ZN9ZIconView18rightButtonPressedEP13ZIconViewItemRK6QPoint
419e3718 T _ZN9ZIconView18viewportPaintEventEP11QPaintEvent
419e4de0 T _ZN9ZIconView19updateItemContainerEP13ZIconViewItem
419e1f08 T _ZN9ZIconView19viewportResizeEventEP12QResizeEvent
419dd788 T _ZN9ZIconView20emitSelectionChangedEP13ZIconViewItem
419e1ad4 T _ZN9ZIconView20ensureCurrentVisibleEv
419e06f4 T _ZN9ZIconView20setIconStretchPolicyE23PIXMAP_STRETCH_POLICY_E
419df278 T _ZN9ZIconView21getImageContainerSkinEN9ZSkinBase14SelectionStateE
419ddab8 T _ZN9ZIconView22makeLandscapeRowLayoutEP13ZIconViewItemiib
419e1ef0 T _ZN9ZIconView29setDeleteItemCallBackFunctionEPFvP13ZIconViewItemE
419de648 T _ZN9ZIconView4sortEb
419e24f4 T _ZN9ZIconView5clearEv
41a8d228 T _ZN9ZIconView6onItemEP13ZIconViewItem
41a8df60 T _ZN9ZIconView7clickedEP13ZIconViewItem
41a8ddf8 T _ZN9ZIconView7clickedEP13ZIconViewItemRK6QPoint
41a8dce4 T _ZN9ZIconView7pressedEP13ZIconViewItem
41a8db7c T _ZN9ZIconView7pressedEP13ZIconViewItemRK6QPoint
419dc78c T _ZN9ZIconView8itemRectEP13ZIconViewItem
419e32f0 T _ZN9ZIconView8takeItemEP13ZIconViewItem
419dec68 T _ZN9ZIconView9checkItemEib
419debcc T _ZN9ZIconView9checkItemEP13ZIconViewItemb
419dc6e4 T _ZN9ZIconView9setLayoutEjjb
419dc884 T _ZN9ZIconView9showEventEP10QShowEvent
419dfd38 T _ZN9ZIconViewC1EP7QWidgetPKcjiiN12ZSkinService11WidgetClsIDE
419e0100 T _ZN9ZIconViewC2EP7QWidgetPKcjiiN12ZSkinService11WidgetClsIDE
419e2664 T _ZN9ZIconViewD0Ev
419e2a24 T _ZN9ZIconViewD1Ev
419e2dd4 T _ZN9ZIconViewD2Ev
4194b410 T _ZN9ZInfoBarL10paintEventEP11QPaintEvent
4194bf48 T _ZN9ZInfoBarL10slotFadeInEv
4194be60 T _ZN9ZInfoBarL11hideInfobarEv
4194b824 T _ZN9ZInfoBarL11resizeEventEP12QResizeEvent
4194be84 T _ZN9ZInfoBarL11showInfobarEv
4194bea8 T _ZN9ZInfoBarL11slotFadeOutEv
41a7d120 T _ZN9ZInfoBarL14initMetaObjectEv
41a7cf64 T _ZN9ZInfoBarL16staticMetaObjectEv
41a7d1d0 T _ZN9ZInfoBarL17sigFadeInCompleteEv
41a7d1ac T _ZN9ZInfoBarL18sigFadeOutCompleteEv
41a7cde0 T _ZN9ZInfoBarL2trEPKc
41a7ce34 T _ZN9ZInfoBarL2trEPKcS1_
4194c000 T _ZN9ZInfoBarL4hideEv
41ad2904 B _ZN9ZInfoBarL7metaObjE
4194b568 T _ZN9ZInfoBarL7setTextE7QString
4194b898 T _ZN9ZInfoBarLC1EP7QWidget
4194bb7c T _ZN9ZInfoBarLC2EP7QWidget
41a7d4e8 W _ZN9ZInfoBarLD0Ev
41a7d440 W _ZN9ZInfoBarLD1Ev
41918c18 T _ZN9ZKbConfig13getModeStringERK5QUuidRb
4191af70 T _ZN9ZKbConfig16getInputLangListER11QStringListS1_
4191ae20 T _ZN9ZKbConfig17getFieldInputLangEiR7QString
41918dcc T _ZN9ZKbConfig17getFieldInputModeEiR5QUuid
4191a514 T _ZN9ZKbConfig19getDefaultInputLangER7QString
41919a20 T _ZN9ZKbConfig19setDefaultInputLangERK7QString
41919504 T _ZN9ZKbConfig20isInputModeSupportedERK5QUuid
419194f0 T _ZN9ZKbConfig24getSupportedLangCodeListEv
4199beb8 T _ZN9ZLineEdit10cursorLeftEb
41992c5c T _ZN9ZLineEdit10isZEnabledEv
41992c58 T _ZN9ZLineEdit10leaveEventEP6QEvent
41998118 T _ZN9ZLineEdit10paintEventEP11QPaintEvent
4199770c T _ZN9ZLineEdit10setEnabledEb
41997388 T _ZN9ZLineEdit10setPaletteERK8QPalette
41997448 T _ZN9ZLineEdit10updateSkinEb
4199bbb8 T _ZN9ZLineEdit11cursorRightEb
41995218 T _ZN9ZLineEdit11resizeEventEP12QResizeEvent
41995194 T _ZN9ZLineEdit11setEchoModeENS_8EchoModeE
41993070 T _ZN9ZLineEdit11setReadOnlyEb
41a8500c T _ZN9ZLineEdit11textChangedERK7QString
4199ceac T _ZN9ZLineEdit12backspaceNewEv
4199652c T _ZN9ZLineEdit12focusInEventEP11QFocusEvent
419951cc T _ZN9ZLineEdit12setAlignmentEi
419972b4 T _ZN9ZLineEdit12setMaxLengthEi
41994e5c T _ZN9ZLineEdit12setSelectionEii
419931f4 T _ZN9ZLineEdit12setValidatorEPK10QValidator
41995e0c T _ZN9ZLineEdit12stateChangedENS_17StateChangeReasonE
41996470 T _ZN9ZLineEdit13focusOutEventEP11QFocusEvent
41993438 T _ZN9ZLineEdit13getInputFieldEv
4199fec4 T _ZN9ZLineEdit13keyPressEventEP9QKeyEvent
41997778 T _ZN9ZLineEdit13setAutoResizeEb
41993200 T _ZN9ZLineEdit14clearValidatorEv
41a84f80 T _ZN9ZLineEdit14initMetaObjectEv
4199502c T _ZN9ZLineEdit14mouseMoveEventEP11QMouseEvent
41997060 T _ZN9ZLineEdit14setFontPercentEf
4199f07c T _ZN9ZLineEdit15mousePressEventEP11QMouseEvent
419934cc T _ZN9ZLineEdit16setInitAutoAlignENS_13InitAutoAlignE
419939fc T _ZN9ZLineEdit16setTitlePositionENS_13TitlePositionE
41a84874 T _ZN9ZLineEdit16staticMetaObjectEv
419935ec T _ZN9ZLineEdit17cursorRightFinishEbi
41994eb0 T _ZN9ZLineEdit17mouseReleaseEventEP11QMouseEvent
41994dec T _ZN9ZLineEdit17setCursorPositionEi
41993a40 T _ZN9ZLineEdit17setPreferredWidthEi
41993454 T _ZN9ZLineEdit18setCursorFlagExistENS_15CursorFlagExistE
4199389c T _ZN9ZLineEdit18setInsertionMethodENS_15InsertionMethodE
419937a0 T _ZN9ZLineEdit21mouseDoubleClickEventEP11QMouseEvent
41993468 T _ZN9ZLineEdit22setCursorFlagDirectionENS_19CursorFlagDirectionE
41993890 T _ZN9ZLineEdit22setEchoModeWhenNoFocusENS_8EchoModeE
4199259c T _ZN9ZLineEdit23getInputModeCursorModelEv
41993878 T _ZN9ZLineEdit23setEchoModeWhenHasFocusENS_8EchoModeE
419937e4 T _ZN9ZLineEdit4homeEb
41992bc8 T _ZN9ZLineEdit5clearEv
41996104 T _ZN9ZLineEdit5eventEP6QEvent
4199b22c T _ZN9ZLineEdit6insertERK7QString
4199339c T _ZN9ZLineEdit7setFontERK5QFont
41995160 T _ZN9ZLineEdit7setModeENS_8EchoModeE
4199904c T _ZN9ZLineEdit7setTextERK7QString
41995198 T _ZN9ZLineEdit8setFrameEb
41993b78 T _ZN9ZLineEdit8setTitleERK7QString
4199d7d0 T _ZN9ZLineEdit9backspaceEv
4199a8b8 T _ZN9ZLineEdit9insertNewERK7QString
4199373c T _ZN9ZLineEdit9selectAllEv
41993518 T _ZN9ZLineEdit9setEditedEb
41999b58 T _ZN9ZLineEditC1EP7QWidgetPKcN12ZSkinService11WidgetClsIDE
41999988 T _ZN9ZLineEditC1ERK7QStringP7QWidgetPKcN12ZSkinService11WidgetClsIDE
41999c24 T _ZN9ZLineEditC2EP7QWidgetPKcN12ZSkinService11WidgetClsIDE
41999a70 T _ZN9ZLineEditC2ERK7QStringP7QWidgetPKcN12ZSkinService11WidgetClsIDE
41999cf0 T _ZN9ZLineEditD0Ev
4199a0b4 T _ZN9ZLineEditD1Ev
4199a470 T _ZN9ZLineEditD2Ev
41972a44 T _ZN9ZListItem10setEnabledEb
41972b18 T _ZN9ZListItem12setSeparatorE7QStringPK7QPixmap
41973b80 T _ZN9ZListItem13getWrapPolicyEv
41972a9c T _ZN9ZListItem13setSelectableEb
41972e08 T _ZN9ZListItem13setWrapPolicyEN9ZWrapLine10WrapPolicyE
41972a8c T _ZN9ZListItem15getReservedDataEv
41972a94 T _ZN9ZListItem15setReservedDataEj
41973994 T _ZN9ZListItem17getSelectionStateEv
419735fc T _ZN9ZListItem5checkEb
41973864 T _ZN9ZListItem9setActiveEv
41972e14 T _ZN9ZListItem9setZStyleEN12ZSkinService11WidgetClsIDE
41a1742c T _ZN9ZSkinBase10drawBorderER8QPainterPK5QRect
41a15834 T _ZN9ZSkinBase10drawBorderER8QPainterR5QRectP7QPixmapiii
41a165e8 T _ZN9ZSkinBase10drawBorderER8QPainterR7ZWidgetPK5QRectb
41a14b44 T _ZN9ZSkinBase10setPaddingERK18ZWidgetPaddingInfo
41a14438 T _ZN9ZSkinBase10setZBorderEP17ZWidgetBorderInfo
41a14570 T _ZN9ZSkinBase10setZBorderERNS_13BorderPixmapsE
41a14108 T _ZN9ZSkinBase10updateSkinEv
41a14cfc T _ZN9ZSkinBase11enableCacheEb
41a14bbc T _ZN9ZSkinBase11setPixmapIDE7QStringS0_
41a146d8 T _ZN9ZSkinBase14setZBackgroundEP21ZWidgetBackgroundInfo
41a14784 T _ZN9ZSkinBase14setZBackgroundER7QPixmap
41a14c2c T _ZN9ZSkinBase15setPixmapPrefixER7QString
41a14ba0 T _ZN9ZSkinBase17setSelectionStateENS_14SelectionStateE
41a14bb4 T _ZN9ZSkinBase18getBlendingPercentEv
41a161d0 T _ZN9ZSkinBase18getParentBackImageER7ZWidgetiiRiS2_Rb
41a1455c T _ZN9ZSkinBase18setBlendingPercentEj
41a14c58 T _ZN9ZSkinBase21setWidgetPixmapPrefixER7QString
41a16a08 T _ZN9ZSkinBase23drawBackgroundAndBorderER8QPainterR7ZWidgetPK5QRectb
41a16548 T _ZN9ZSkinBase24getBorderBlendingPercentEv
41a16130 T _ZN9ZSkinBase28getBackgroundBlendingPercentEv
41a12648 T _ZN9ZSkinBaseC1ER7QWidgetN12ZSkinService11WidgetClsIDEb
41a12a50 T _ZN9ZSkinBaseC1ER7ZWidgetN12ZSkinService11WidgetClsIDEb
41a1243c T _ZN9ZSkinBaseC2ER7QWidgetN12ZSkinService11WidgetClsIDEb
41a12854 T _ZN9ZSkinBaseC2ER7ZWidgetN12ZSkinService11WidgetClsIDEb
41a12ff4 T _ZN9ZSkinBaseD0Ev
41a12e20 T _ZN9ZSkinBaseD1Ev
41a12c4c T _ZN9ZSkinBaseD2Ev
418d8f54 T _ZN9ZSkinTool7processER7QPixmapii23PIXMAP_STRETCH_POLICY_E
419d51f4 T _ZN9ZSoftKeyL10paintEventEP11QPaintEvent
419d4cbc T _ZN9ZSoftKeyL10slotFadeInEv
419d4bf0 T _ZN9ZSoftKeyL11hideSoftkeyEv
419d5178 T _ZN9ZSoftKeyL11resizeEventEP12QResizeEvent
419d4c14 T _ZN9ZSoftKeyL11showSoftkeyEv
419d4d34 T _ZN9ZSoftKeyL11slotFadeOutEv
419d53e8 T _ZN9ZSoftKeyL12setMenuPopupEb
419d542c T _ZN9ZSoftKeyL13setButtonDownEN8ZSoftKey7KEY_IDXEb
41a8bf48 T _ZN9ZSoftKeyL14initMetaObjectEv
41a8bcc0 T _ZN9ZSoftKeyL16staticMetaObjectEv
41a8c01c T _ZN9ZSoftKeyL17sigFadeInCompleteEv
41a8bff8 T _ZN9ZSoftKeyL18sigFadeOutCompleteEv
41a8bfd4 T _ZN9ZSoftKeyL20rSoftkeyUpLOnSoftkeyEv
419d53e4 T _ZN9ZSoftKeyL21slotRightKeyReleasedLEv
419d526c T _ZN9ZSoftKeyL22connectKeySignalToSlotEP12ZOptionsMenu
419d50f8 T _ZN9ZSoftKeyL23handleShortcutKeyOneBtnEib
41a8bc1c T _ZN9ZSoftKeyL2trEPKc
41a8bc70 T _ZN9ZSoftKeyL2trEPKcS1_
419d4d8c T _ZN9ZSoftKeyL4hideEv
41ad2a50 B _ZN9ZSoftKeyL7metaObjE
419d4dc4 T _ZN9ZSoftKeyL7setCstREv
419d4e8c T _ZN9ZSoftKeyL7setTextEN8ZSoftKey7KEY_IDXERK7QStringNS0_13TEXT_PRIORITYE
419d4c38 T _ZN9ZSoftKeyL8setAlphaEi
419d5480 T _ZN9ZSoftKeyL9createBtnEv
419d4ed8 T _ZN9ZSoftKeyL9parseTypeERK7QString
419d4920 T _ZN9ZSoftKeyLC1ERK7QStringP7QWidgetS4_
419d473c T _ZN9ZSoftKeyLC2ERK7QStringP7QWidgetS4_
419d4b9c T _ZN9ZSoftKeyLD0Ev
419d4b50 T _ZN9ZSoftKeyLD1Ev
419d4b04 T _ZN9ZSoftKeyLD2Ev
419f03d4 T _ZN9ZWrapLine11getNumLinesEv
419f04e4 T _ZN9ZWrapLine11setWordWrapENS_8WordWrapE
419f050c T _ZN9ZWrapLine12setAlignmentEN2Qt14AlignmentFlagsE
419f0334 T _ZN9ZWrapLine12setStrSourceER7QString
419f07b8 T _ZN9ZWrapLine12wtleWrapLineERiPNS_16ZWrapLineEditRowERK5QFont
419f0580 T _ZN9ZWrapLine13autoAlignmentEP9TsLayout_R12TsLayoutInfo
419f033c T _ZN9ZWrapLine13calcCompWidthERli
419f04d4 T _ZN9ZWrapLine13setWrapPolicyENS_10WrapPolicyE
419f021c T _ZN9ZWrapLine14clearChartableEv
419f0404 T _ZN9ZWrapLine14getLineContentEiR7QStringRb
419f0504 T _ZN9ZWrapLine16setContentsWidthEi
419f04f4 T _ZN9ZWrapLine20setWrapColumnOrWidthEi
419f049c T _ZN9ZWrapLine5clearEv
419f0be8 T _ZN9ZWrapLine8wrapLineERK5QFont
419f0610 T _ZN9ZWrapLineC1ER7QString
419f06e4 T _ZN9ZWrapLineC2ER7QString
419f02b8 T _ZN9ZWrapLineD1Ev
419f023c T _ZN9ZWrapLineD2Ev
418e09f8 T _Znaj
         U _ZneRK5QRectS1_
         U _ZneRK7QStringPKc
         U _ZneRK7QStringS1_
         U _ZNK10QClipboard4textER8QCString
         U _ZNK10QScrollBar8maxValueEv
         U _ZNK10QScrollBar8minValueEv
         U _ZNK10QScrollBar8pageStepEv
419a4220 T _ZNK10ZNavTabBar12getSpacingH1Ev
41a96c44 T _ZNK10ZNoticeDlg9classNameEv
419b692c T _ZNK10ZNumModule12getSpacingH1Ev
419b5e7c T _ZNK10ZNumPicker12getSpacingV1Ev
41983588 T _ZNK10ZScrollBar12getDecPixmapEv
419835f0 T _ZNK10ZScrollBar12getIncPixmapEv
41984530 T _ZNK10ZScrollBar9getExtentEv
419a0810 T _ZNK10ZSeparator12getSpacingH1Ev
419a077c T _ZNK10ZSeparator12getSpacingH2Ev
419cf208 T _ZNK10ZSplitPane15minimumSizeHintEv
419cf1f4 T _ZNK10ZSplitPane8sizeHintEv
         U _ZNK11QColorGroup5brushENS_9ColorRoleE
         U _ZNK11QCopChannel7channelEv
         U _ZNK11QCopChannel9classNameEv
         U _ZNK11QPointArray12boundingRectEv
         U _ZNK11QScrollView10sizePolicyEv
         U _ZNK11QScrollView12visibleWidthEv
         U _ZNK11QScrollView13contentsWidthEv
         U _ZNK11QScrollView13visibleHeightEv
         U _ZNK11QScrollView14contentsHeightEv
         U _ZNK11QScrollView15minimumSizeHintEv
         U _ZNK11QScrollView8sizeHintEv
         U _ZNK11QScrollView8viewportEv
         U _ZNK11QScrollView9classNameEv
         U _ZNK11QScrollView9contentsXEv
         U _ZNK11QScrollView9contentsYEv
         U _ZNK11QStringList4joinERK7QString
418b3814 T _ZNK11SETUP_THEME5Theme11getGridIconEv
418b3738 T _ZNK11SETUP_THEME5Theme11getListIconEv
418b3e70 T _ZNK11SETUP_THEME5Theme12getMediaFileEib
418b4378 T _ZNK11SETUP_THEME5Theme8getValueEib
41a40280 T _ZNK11ZBaseButton4isOnEv
41a40768 T _ZNK11ZBaseButton4textEv
41a40780 T _ZNK11ZBaseButton6pixmapEv
41a3fb40 T _ZNK11ZBaseButton9hitButtonERK6QPoint
41955f3c T _ZNK11ZCanvasItem20boundingRectAdvancedEv
4195f5bc T _ZNK11ZCanvasView8sizeHintEv
41a7e544 T _ZNK11ZCanvasView9classNameEv
419b0dbc T _ZNK11ZDateModule12getSpacingH1Ev
419ae9c4 T _ZNK11ZDatePicker12getSpacingH1Ev
419ae974 T _ZNK11ZDatePicker12getSpacingH2Ev
419ae864 T _ZNK11ZDatePicker12getSpacingV1Ev
41979730 T _ZNK11ZDetailItem10getSDCountEv
4197973c T _ZNK11ZDetailItem9getSDDataEiR7QStringS1_S1_
419798b8 T _ZNK11ZDetailItem9getSDRectEi
419759cc T _ZNK11ZDetailView10getSDCountEv
419772b8 T _ZNK11ZDetailView11getItemSkinEv
41977238 T _ZNK11ZDetailView11noFocusModeEv
419757e4 T _ZNK11ZDetailView14maxmumSizeHintEv
41974c30 T _ZNK11ZDetailView15getMaxItemWidthEv
419774e0 T _ZNK11ZDetailView16getSeparatorFontEv
41977258 T _ZNK11ZDetailView16getSeparatorSkinEv
41977318 T _ZNK11ZDetailView17getSeparatorImageEi
41976ca8 T _ZNK11ZDetailView19getCurrentFocusRectEb
419758a4 T _ZNK11ZDetailView20getStepInScrollPanelEb
419771e0 T _ZNK11ZDetailView20hasNextPrevFocusItemEb
419778bc T _ZNK11ZDetailView21getStructureDataCountEv
41975898 T _ZNK11ZDetailView22getStructureDataParserEv
41a81e0c T _ZNK11ZDetailView9classNameEv
41975a64 T _ZNK11ZDetailView9getSDRectEi
419168d8 T _ZNK11ZInputField10getOptionsEi
41916ecc T _ZNK11ZInputField18isRTLCharDirectionEv
4191716c T _ZNK11ZInputField22getPreferredInputModesER10QValueListI5QUuidERS1_
419166d0 T _ZNK11ZInputField7getTypeEv
41916944 T _ZNK11ZInputField8editTypeEv
41a0f738 T _ZNK11ZMainWidget23getFavoriteInputMethodsEv
41a90ef0 T _ZNK11ZMainWidget9classNameEv
41a95784 T _ZNK11ZMessageDlg9classNameEv
419b4294 T _ZNK11ZTimeModule12getSpacingH1Ev
419b216c T _ZNK11ZTimePicker12getSpacingH1Ev
419b211c T _ZNK11ZTimePicker12getSpacingH2Ev
419b1fc4 T _ZNK11ZTimePicker12getSpacingV1Ev
         U _ZNK12QApplication4typeEv
         U _ZNK12QApplication9classNameEv
         U _ZNK12QApplication9translateEPKcS1_S1_
         U _ZNK12QButtonGroup11isExclusiveEv
         U _ZNK12QCommonStyle17defaultFrameWidthEv
         U _ZNK12QFontMetrics11leftBearingE5QChar
         U _ZNK12QFontMetrics11lineSpacingEv
         U _ZNK12QFontMetrics12boundingRectEiiiiiRK7QStringiiPiPPc
         U _ZNK12QFontMetrics12rightBearingE5QChar
         U _ZNK12QFontMetrics4sizeEiRK7QStringiiPiPPc
         U _ZNK12QFontMetrics5widthE5QChar
         U _ZNK12QFontMetrics5widthERK7QStringi
         U _ZNK12QFontMetrics6ascentEv
         U _ZNK12QFontMetrics6heightEv
         U _ZNK12QFontMetrics7descentEv
         U _ZNK12QFontMetrics8maxWidthEv
         U _ZNK12QPaintDevice7fontInfEP5QFonti
         U _ZNK12QPaintDevice7fontMetEP5QFontiPKci
418df258 T _ZNK12UTIL_MemInfo10inactCleanEv
418df230 T _ZNK12UTIL_MemInfo10inactDirtyEv
418df3c0 T _ZNK12UTIL_MemInfo10mallocableEv
418df1e0 T _ZNK12UTIL_MemInfo10swapCachedEv
418df280 T _ZNK12UTIL_MemInfo11inactTargetEv
418df398 T _ZNK12UTIL_MemInfo11nrSwapPagesEv
418dfd00 T _ZNK12UTIL_MemInfo13matGetFreeMemEv
418dfbf8 T _ZNK12UTIL_MemInfo13matRegisterExElii
418dfb6c T _ZNK12UTIL_MemInfo15matDeregisterExEl
418df10c T _ZNK12UTIL_MemInfo4initEv
418df3f8 T _ZNK12UTIL_MemInfo5printEv
418df208 T _ZNK12UTIL_MemInfo6activeEv
418df1b8 T _ZNK12UTIL_MemInfo6cachedEv
418df190 T _ZNK12UTIL_MemInfo7buffersEv
418df320 T _ZNK12UTIL_MemInfo7lowFreeEv
418df9ec T _ZNK12UTIL_MemInfo7matInitEv
418df140 T _ZNK12UTIL_MemInfo7memFreeEv
418df2d0 T _ZNK12UTIL_MemInfo8highFreeEv
418df2f8 T _ZNK12UTIL_MemInfo8lowTotalEv
418df118 T _ZNK12UTIL_MemInfo8memTotalEv
418df370 T _ZNK12UTIL_MemInfo8swapFreeEv
418dec00 T _ZNK12UTIL_MemInfo9doRefreshEv
418df2a8 T _ZNK12UTIL_MemInfo9highTotalEv
418df168 T _ZNK12UTIL_MemInfo9memSharedEv
418df348 T _ZNK12UTIL_MemInfo9swapTotalEv
41a01274 T _ZNK12ZAppInfoArea10getPaddingEi
41a00724 T _ZNK12ZAppInfoArea10getSpacingEv
41a01088 T _ZNK12ZAppInfoArea12getAreaWidthEP8ZFmwArea
41a02bc8 T _ZNK12ZAppInfoArea13getAreaHeightEP8ZFmwArea
41a02af0 T _ZNK12ZAppInfoArea13getItemHeightEP8ZFmwItem
41a0074c T _ZNK12ZAppInfoArea15getOutlineColorEv
41a02ca4 T _ZNK12ZAppInfoArea15getWidgetHeightEv
41a02c58 T _ZNK12ZAppInfoArea16getContentHeightEv
41a00708 T _ZNK12ZAppInfoArea18getInternalSpacingEv
41a04d28 T _ZNK12ZAppInfoArea8sizeHintEv
41a8fd9c T _ZNK12ZAppInfoArea9classNameEv
418e23a0 T _ZNK12ZApplication14getSkinServiceEPK7ZWidget
418e2478 T _ZNK12ZApplication21getAppLayoutDirectionEv
41a73c9c T _ZNK12ZApplication9classNameEv
419b9cc0 T _ZNK12ZColorModule11getWellSizeEv
419b9d1c T _ZNK12ZColorModule12getSpacingH2Ev
419ba31c T _ZNK12ZColorModule12getSpacingV1Ev
419b7ad0 T _ZNK12ZColorPicker12getSpacingH2Ev
419b7b20 T _ZNK12ZColorPicker12getSpacingV2Ev
41a44400 T _ZNK12ZDateControl13getFrameWidthERiS0_S0_S0_
41a4470c T _ZNK12ZDateControl14getBtnHSpacingEv
41a444f4 T _ZNK12ZDateControl14getContentRectEv
41a44fb4 T _ZNK12ZDateControl14getCurrentFontER5QFontR6QColorN7ZButton8ItemTypeE
41a44718 T _ZNK12ZDateControl15getTitleSpacingEN7ZButton13TitlePositionE
41a445d8 T _ZNK12ZDateControl16getBtnFrameWidthERiS0_S0_S0_
41a44628 T _ZNK12ZDateControl18getLabelFrameWidthERiS0_S0_S0_
4196dd74 T _ZNK12ZListBoxItem11getSortTextEv
4196cd44 T _ZNK12ZListBoxItem5widthEPK8ZListBox
4197065c T _ZNK12ZListBoxItem6heightEPK8ZListBox
4197f860 T _ZNK12ZMarqueeText4fontEv
4197f7dc T _ZNK12ZMarqueeText7getTextEv
4197f83c T _ZNK12ZMarqueeText8geometryEv
419c1a70 T _ZNK12ZMeterModule12getSpacingH1Ev
419c1a20 T _ZNK12ZMeterModule12getSpacingV1Ev
419c17ac T _ZNK12ZMeterModule8getMeterEv
41a96fa8 T _ZNK12ZNoticeDelay9classNameEv
419e8748 T _ZNK12ZOptionsMenu11isItemHidedEi
419e6f58 T _ZNK12ZOptionsMenu13getParentMenuEv
419e8848 T _ZNK12ZOptionsMenu13isItemEnabledEi
419e8398 T _ZNK12ZOptionsMenu8findItemEiPPS_
41a8e36c T _ZNK12ZOptionsMenu9classNameEv
419e6c90 T _ZNK12ZOptionsMenu9limitRectEv
41a4eefc T _ZNK12ZPopupHeader15getPrimaryTitleEv
41a4f04c T _ZNK12ZPopupHeader17getSecondaryTitleEv
41a4ee1c T _ZNK12ZPopupHeader7getTypeEv
41a94b48 T _ZNK12ZPopupHeader9classNameEv
4198e59c T _ZNK12ZPressButton10getBtnRectEv
4198dea8 T _ZNK12ZPressButton10getBtnSizeEv
4198e460 T _ZNK12ZPressButton12getTitleRectEv
4198e180 T _ZNK12ZPressButton12getTitleSizeEv
4198d818 T _ZNK12ZPressButton13getFrameWidthERiS0_S0_S0_
4198e430 T _ZNK12ZPressButton13titlePositionEv
4198ddc4 T _ZNK12ZPressButton14getContentRectEv
4198de58 T _ZNK12ZPressButton16getBtnFrameWidthERiS0_S0_S0_
4198e71c T _ZNK12ZPressButton17getBtnContentRectEv
4198d8b8 T _ZNK12ZPressButton4textEv
4198e418 T _ZNK12ZPressButton5titleEv
4198e274 T _ZNK12ZPressButton8sizeHintEv
41a83f04 T _ZNK12ZPressButton9classNameEv
41a595d0 T _ZNK12ZProgressDlg12wasCancelledEv
41a59784 T _ZNK12ZProgressDlg18getMinimumDurationEv
41a960d8 T _ZNK12ZProgressDlg9classNameEv
41991b94 T _ZNK12ZRadioButton13getTextHeightEv
41990c8c T _ZNK12ZRadioButton6pixmapEv
41991804 T _ZNK12ZRadioButton9isCheckedEv
419864b4 T _ZNK12ZScrollPanel10firstChildEv
41985f38 T _ZNK12ZScrollPanel10leftMarginEv
41986224 T _ZNK12ZScrollPanel10sizePolicyEv
419866f4 T _ZNK12ZScrollPanel11noFocusModeEv
41985f50 T _ZNK12ZScrollPanel11rightMarginEv
41985f5c T _ZNK12ZScrollPanel12bottomMarginEv
41984f2c T _ZNK12ZScrollPanel12resizePolicyEv
4198a050 T _ZNK12ZScrollPanel12viewportSizeEii
41984e98 T _ZNK12ZScrollPanel12visibleWidthEv
41984e74 T _ZNK12ZScrollPanel13contentsWidthEv
41984ebc T _ZNK12ZScrollPanel13visibleHeightEv
41984e80 T _ZNK12ZScrollPanel14contentsHeightEv
419863f0 T _ZNK12ZScrollPanel15minimumSizeHintEv
41984e68 T _ZNK12ZScrollPanel17verticalScrollBarEv
41986464 T _ZNK12ZScrollPanel18getLandscapeScrollEv
419866b4 T _ZNK12ZScrollPanel19getCurrentFocusRectEb
41984e60 T _ZNK12ZScrollPanel19horizontalScrollBarEv
419866ec T _ZNK12ZScrollPanel20hasNextPrevFocusItemEb
419866a8 T _ZNK12ZScrollPanel23isScrollPanelTypeWidgetEv
4198623c T _ZNK12ZScrollPanel8sizeHintEv
41984f3c T _ZNK12ZScrollPanel8viewportEv
41a83360 T _ZNK12ZScrollPanel9classNameEv
41984db4 T _ZNK12ZScrollPanel9contentsXEv
41984dc4 T _ZNK12ZScrollPanel9contentsYEv
419864f4 T _ZNK12ZScrollPanel9lastChildEv
41986534 T _ZNK12ZScrollPanel9nextChildEP7ZWidget
41985f44 T _ZNK12ZScrollPanel9topMarginEv
419fc838 T _ZNK12ZSettingItem11getSortTextEv
419fc890 T _ZNK12ZSettingItem12listitemTypeEv
419fc3b8 T _ZNK12ZSettingItem5widthEPK8ZListBox
419fd7e8 T _ZNK12ZSettingItem6heightEPK8ZListBox
41a1c52c T _ZNK12ZSkinService22getBasicSkinnablePropsENS_11WidgetClsIDE
41a41e64 T _ZNK12ZTimeControl13getFrameWidthERiS0_S0_S0_
41a42170 T _ZNK12ZTimeControl14getBtnHSpacingEv
41a41f58 T _ZNK12ZTimeControl14getContentRectEv
41a4291c T _ZNK12ZTimeControl14getCurrentFontER5QFontR6QColorN7ZButton8ItemTypeE
41a4217c T _ZNK12ZTimeControl15getTitleSpacingEN7ZButton13TitlePositionE
41a4203c T _ZNK12ZTimeControl16getBtnFrameWidthERiS0_S0_S0_
41a4208c T _ZNK12ZTimeControl18getLabelFrameWidthERiS0_S0_S0_
4193a9a0 T _ZNK13AM_ActionData15getAppLockCheckEv
4193c504 T _ZNK13AM_ActionData5valueERK7QString
4193c2f0 T _ZNK13AM_ActionData6actionEv
4193bad0 T _ZNK13AM_ActionData6invokeEv
4193c2a8 T _ZNK13AM_ActionData6objectEv
4193c3fc T _ZNK13AM_ActionData8getValueERK7QStringRS0_
         U _ZNK13QRangeControl17positionFromValueEii
         U _ZNK13QRangeControl17valueFromPositionEii
         U _ZNK13QServerSocket6socketEv
         U _ZNK13QWindowsStyle12sliderLengthEv
         U _ZNK13QWindowsStyle13splitterWidthEv
         U _ZNK13QWindowsStyle25maximumSliderDragDistanceEv
         U _ZNK13QWindowsStyle9classNameEv
41a6fda4 W _ZNK13UTIL_DateTime10metaObjectEv
41a6faf8 T _ZNK13UTIL_DateTime9classNameEv
41a70054 W _ZNK13UTIL_UILocker10metaObjectEv
41a6fda8 T _ZNK13UTIL_UILocker9classNameEv
419ab6b4 T _ZNK13ZCalendarGrid11getDayWidthE18ZWidgetPaddingInfoP16ZWidgetSkinProps
419ab328 T _ZNK13ZCalendarGrid12getDayHeightEv
419ab490 T _ZNK13ZCalendarGrid18getDayHeaderHeightEv
419bc660 T _ZNK13ZColorControl12getSpacingH1Ev
419bb640 T _ZNK13ZColorControl12getTitleRectEv
419bae60 T _ZNK13ZColorControl12getTitleSizeEv
419bb470 T _ZNK13ZColorControl13getFrameWidthERiS0_S0_S0_
419bb564 T _ZNK13ZColorControl14getContentRectEv
419bc384 T _ZNK13ZColorControl16getSpacingFormH1Ev
419bc334 T _ZNK13ZColorControl16getSpacingFormV1Ev
419bc3d4 T _ZNK13ZColorControl16getWellLabelRectEv
419bc6b0 T _ZNK13ZColorControl16getWellLabelSizeEv
418ede08 T _ZNK13ZDirectPixmap4bitsEv
419def4c T _ZNK13ZIconViewItem10pixmapRectEb
419dda00 T _ZNK13ZIconViewItem11getDrmImageEv
419dc230 T _ZNK13ZIconViewItem11getItemTypeEv
419dc70c T _ZNK13ZIconViewItem17getSelectionStateEv
419db8e4 T _ZNK13ZIconViewItem3keyEv
419db3f4 T _ZNK13ZIconViewItem4rectEv
419db8cc T _ZNK13ZIconViewItem4textEv
419db97c T _ZNK13ZIconViewItem5indexEv
419dbad4 T _ZNK13ZIconViewItem5widthEv
419db8fc T _ZNK13ZIconViewItem6pixmapEv
419dbce8 T _ZNK13ZIconViewItem7compareEPS_
419db914 T _ZNK13ZIconViewItem8nextItemEv
419db90c T _ZNK13ZIconViewItem8prevItemEv
419dbc04 T _ZNK13ZIconViewItem8textRectEb
419ddaa0 T _ZNK13ZIconViewItem9getZStyleEv
419db388 T _ZNK13ZIconViewItem9isCheckedEv
41a90eec W _ZNK13ZKbMainWidget10metaObjectEv
41a90b04 T _ZNK13ZKbMainWidget9classNameEv
419a72e4 T _ZNK13ZNavTabWidget10sizePolicyEv
419a6100 T _ZNK13ZNavTabWidget11currentPageEv
419a74b4 T _ZNK13ZNavTabWidget12getSpacingH1Ev
419a5f9c T _ZNK13ZNavTabWidget12isTabEnabledEP7QWidget
419a7064 T _ZNK13ZNavTabWidget15minimumSizeHintEv
419a610c T _ZNK13ZNavTabWidget16currentPageIndexEv
419a6fbc T _ZNK13ZNavTabWidget8sizeHintEv
41a8562c T _ZNK13ZNavTabWidget9classNameEv
41a97830 T _ZNK13ZNumPickerDlg9classNameEv
419cc170 T _ZNK13ZSegmentField12getFieldRectEv
419cbd28 T _ZNK13ZSegmentField12getFieldSizeEv
419cbc40 T _ZNK13ZSegmentField12getSpacingH1Ev
419cc0a4 T _ZNK13ZSegmentField12getTitleRectEv
419cbe64 T _ZNK13ZSegmentField12getTitleSizeEv
419cbed4 T _ZNK13ZSegmentField13getFrameWidthERiS0_S0_S0_
419cbfc8 T _ZNK13ZSegmentField14getContentRectEv
419cbb28 T _ZNK13ZSegmentField14getNumSegmentsEv
419cc33c T _ZNK13ZSegmentField15minimumSizeHintEv
419cbc80 T _ZNK13ZSegmentField16getSpacingFormH1Ev
419cbcc0 T _ZNK13ZSegmentField16getSpacingFormV1Ev
419ce2f4 T _ZNK13ZSegmentField8sizeHintEv
419c63dc T _ZNK13ZSliderModule12getSpacingH1Ev
419c638c T _ZNK13ZSliderModule12getSpacingV1Ev
419c6164 T _ZNK13ZSliderModule9getSliderEv
41a5c708 T _ZNK13ZSliderNotice15getSliderModuleEv
41a9725c T _ZNK13ZSliderNotice9classNameEv
418d9aa4 T _ZNK14UTIL_GifParser6statusEv
41a73c98 W _ZNK14UTIL_GifPlayer10metaObjectEv
418da31c T _ZNK14UTIL_GifPlayer6statusEv
418db548 T _ZNK14UTIL_GifPlayer7playingEv
418db44c T _ZNK14UTIL_GifPlayer8sizeHintEv
41a73918 T _ZNK14UTIL_GifPlayer9classNameEv
419b93e0 T _ZNK14ZCurrColorWell12getSpacingH1Ev
41a968e0 T _ZNK14ZDatePickerDlg9classNameEv
419f66f0 T _ZNK14ZExhibitButton10getBtnRectEv
419f62ac T _ZNK14ZExhibitButton10getBtnSizeEv
419f6644 T _ZNK14ZExhibitButton12getLabelRectEv
419f612c T _ZNK14ZExhibitButton12getLabelSizeEv
419f6f74 T _ZNK14ZExhibitButton12getTitleRectEv
419f6094 T _ZNK14ZExhibitButton12getTitleSizeEv
419f5b64 T _ZNK14ZExhibitButton13getFrameWidthERiS0_S0_S0_
419f5c1c T _ZNK14ZExhibitButton14getContentRectEv
419f603c T _ZNK14ZExhibitButton15getContentWidthEv
419f6750 T _ZNK14ZExhibitButton16getContentHeightEv
419f5fe4 T _ZNK14ZExhibitButton17getContentTopLeftEv
419f5cbc T _ZNK14ZExhibitButton17getEBtnFrameWidthERiS0_S0_S0_
419f63a0 T _ZNK14ZExhibitButton17getExhibitBtnRectEv
419f658c T _ZNK14ZExhibitButton18getEBtnContentRectEv
419f5d84 T _ZNK14ZExhibitButton5labelEv
419d8770 T _ZNK14ZFiveWayButton10getPaddingEi
419d8cc4 T _ZNK14ZFiveWayButton12getSpacingH1Ev
419d8af4 T _ZNK14ZFiveWayButton12getSpacingH2Ev
419d8ad8 T _ZNK14ZFiveWayButton12getSpacingV1Ev
419d8900 T _ZNK14ZFiveWayButton12getSpacingV2Ev
419d8a10 T _ZNK14ZFiveWayButton12getUpKeyRectEv
419d8ce0 T _ZNK14ZFiveWayButton13getMidKeyRectEv
419d87f4 T _ZNK14ZFiveWayButton14getContentRectEv
419d891c T _ZNK14ZFiveWayButton14getDownKeyRectEv
419d8c00 T _ZNK14ZFiveWayButton14getLeftKeyRectEv
419d8760 T _ZNK14ZFiveWayButton15getContentWidthEv
419d8b10 T _ZNK14ZFiveWayButton15getRightKeyRectEv
419d8750 T _ZNK14ZFiveWayButton16getContentHeightEv
419d867c T _ZNK14ZFiveWayButton9getPixmapEiNS_5StateE
419d807c T _ZNK14ZFiveWayButton9getPixmapEP7QVectorI7QPixmapENS_5StateE
41a81b18 T _ZNK14ZFormContainer9classNameEv
418f7a54 T _ZNK14ZMultiLineEdit10isReadOnlyEv
418f5b48 T _ZNK14ZMultiLineEdit10lineLengthEi
418f9a40 T _ZNK14ZMultiLineEdit10sizePolicyEv
418f868c T _ZNK14ZMultiLineEdit11atBeginningEv
418f42d4 T _ZNK14ZMultiLineEdit11getSkinFontER5QFontR6QColorNS_8TextTypeE
418f622c T _ZNK14ZMultiLineEdit11phonenoTextEv
418f9e38 T _ZNK14ZMultiLineEdit11stringShownEi
418f44fc T _ZNK14ZMultiLineEdit12getTitleSizeEv
418f5168 T _ZNK14ZMultiLineEdit13getLineHeightEv
418ff808 T _ZNK14ZMultiLineEdit13maxLineLengthEv
418f5b70 T _ZNK14ZMultiLineEdit15getMarkedRegionEPiS0_S0_S0_
418f9c50 T _ZNK14ZMultiLineEdit15minimumSizeHintEv
418f7b68 T _ZNK14ZMultiLineEdit17getCursorPositionEPiS0_
418f5fdc T _ZNK14ZMultiLineEdit4textEv
418f86d4 T _ZNK14ZMultiLineEdit5atEndEv
419094cc T _ZNK14ZMultiLineEdit6lengthEv
418ff898 T _ZNK14ZMultiLineEdit7hMarginEv
418f63c4 T _ZNK14ZMultiLineEdit8echoModeEv
418f4298 T _ZNK14ZMultiLineEdit8getWidthEv
418f5410 T _ZNK14ZMultiLineEdit8numLinesEv
418f9a58 T _ZNK14ZMultiLineEdit8sizeHintEv
418f5f4c T _ZNK14ZMultiLineEdit8textLineEi
41a76e08 T _ZNK14ZMultiLineEdit9classNameEv
41900e8c T _ZNK14ZMultiLineEdit9getFilterEv
418f45b0 T _ZNK14ZMultiLineEdit9getHeightEv
418f5c5c T _ZNK14ZMultiLineEdit9getStringEi
418ff7fc T _ZNK14ZMultiLineEdit9maxLengthEv
418f9de8 T _ZNK14ZMultiLineEdit9validatorEv
41a47164 T _ZNK14ZNumberControl13getFrameWidthERiS0_S0_S0_
41a47140 T _ZNK14ZNumberControl14getBtnHSpacingEv
41a46f28 T _ZNK14ZNumberControl14getContentRectEv
41a47958 T _ZNK14ZNumberControl14getCurrentFontER5QFontR6QColorN7ZButton8ItemTypeE
41a4714c T _ZNK14ZNumberControl15getTitleSpacingEN7ZButton13TitlePositionE
41a4700c T _ZNK14ZNumberControl16getBtnFrameWidthERiS0_S0_S0_
41a4705c T _ZNK14ZNumberControl18getLabelFrameWidthERiS0_S0_S0_
418ef9dc T _ZNK14ZResFileReader15getDataAtOffsetEjPPhPi
418efa90 T _ZNK14ZResFileReader17getHashTableEntryERK7QString
418efc5c T _ZNK14ZResFileReader3getERK7QStringPPhPi
418ef774 T _ZNK14ZResFileReader5getIDEj
41a97b94 T _ZNK14ZTimePickerDlg9classNameEv
         U _ZNK15QWSServerSocket9classNameEv
41a97510 T _ZNK15ZColorPickerDlg9classNameEv
419efc2c T _ZNK15ZImageContainer13getFrameWidthERiS0_S0_S0_
419f01f0 T _ZNK15ZImageContainer6pixmapEv
41969108 T _ZNK15ZListBoxClipper26hasEverloadedInitListItemsEv
41968d60 T _ZNK15ZListBoxClipper8sizeHintEv
41a80930 T _ZNK15ZListBoxClipper9classNameEv
41a959dc T _ZNK15ZMultiSelectDlg9classNameEv
41a7cb60 W _ZNK15ZPopupLandscape10metaObjectEv
41a7c428 T _ZNK15ZPopupLandscape9classNameEv
419c7328 T _ZNK15ZProgressSlider12getSpacingS1Ev
418dd18c T _ZNK16UTIL_ImageParser11frameNumberEv
418dd198 T _ZNK16UTIL_ImageParser11framePeriodEv
418dd174 T _ZNK16UTIL_ImageParser11isAnimationEv
418dd15c T _ZNK16UTIL_ImageParser13isTransparentEv
418dd150 T _ZNK16UTIL_ImageParser5depthEv
418dd138 T _ZNK16UTIL_ImageParser5widthEv
418dd144 T _ZNK16UTIL_ImageParser6heightEv
418dd168 T _ZNK16UTIL_ImageParser6isGrayEv
418dd12c T _ZNK16UTIL_ImageParser6statusEv
418dd180 T _ZNK16UTIL_ImageParser8isGif89aEv
41a6faf4 W _ZNK16UTIL_TAPI_Device10metaObjectEv
41a6f624 T _ZNK16UTIL_TAPI_Device9classNameEv
41959144 T _ZNK16ZCanvasRectangle10areaPointsEv
41955e88 T _ZNK16ZCanvasRectangle12collidesWithEPK11ZCanvasItem
41958c88 T _ZNK16ZCanvasRectangle12collidesWithEPK13ZCanvasSpritePK20ZCanvasPolygonalItemPKS_PK14ZCanvasEllipsePK11ZCanvasText
41958200 T _ZNK16ZCanvasRectangle4rttiEv
419574ec T _ZNK16ZCanvasRectangle5widthEv
4195a190 T _ZNK16ZCanvasRectangle6chunksEv
419574f4 T _ZNK16ZCanvasRectangle6heightEv
41a0d09c T _ZNK16ZHeaderShareInfo10getAreaIdxEN7ZHeader11HEADER_TYPEEi
41a0d010 T _ZNK16ZHeaderShareInfo10getAreaNumEv
41a4b2e4 T _ZNK16ZMediaController15minimumSizeHintEv
41a4b300 T _ZNK16ZMediaController8sizeHintEv
41a94680 T _ZNK16ZMediaController9classNameEv
419e65ac T _ZNK16ZOptionsMenuItem4textEv
419e6614 T _ZNK16ZOptionsMenuItem7subMenuEv
41a95d74 T _ZNK16ZSingleSelectDlg9classNameEv
4192fc60 T _ZNK17KbLanguageHandler10getKeyTypeEi
4192fb94 T _ZNK17KbLanguageHandler13getLanguageIdEv
4192fbb8 T _ZNK17KbLanguageHandler15getMappingTableEi
41a71c38 W _ZNK17UTIL_BTKeyHandler10metaObjectEv
41a71984 T _ZNK17UTIL_BTKeyHandler9classNameEv
41a72260 W _ZNK17UTIL_HardkeySound10metaObjectEv
41a71f74 T _ZNK17UTIL_HardkeySound9classNameEv
41a7bae0 W _ZNK17ZListBoxLandscape10metaObjectEv
41943d8c T _ZNK17ZListBoxLandscape11currentItemEv
41943c10 T _ZNK17ZListBoxLandscape14getContentTextEv
41943d9c T _ZNK17ZListBoxLandscape4itemEi
41a7b88c T _ZNK17ZListBoxLandscape9classNameEv
41a965ac T _ZNK17ZSingleCaptureDlg9classNameEv
         U _ZNK18QWSKeyboardHandler9classNameEv
41a73914 W _ZNK18UTIL_CommandClient10metaObjectEv
41a73664 T _ZNK18UTIL_CommandClient9classNameEv
41a73660 W _ZNK18UTIL_CommandServer10metaObjectEv
41a7340c T _ZNK18UTIL_CommandServer9classNameEv
41a71c3c W _ZNK18UTIL_KeypadHandler10metaObjectEv
418c4f18 T _ZNK18UTIL_KeypadHandler15getKeyPressDataEv
41a71500 T _ZNK18UTIL_KeypadHandler9classNameEv
41863120 T _ZNK18UTIL_ResFileReader11getFileNameEv
418632e8 T _ZNK18UTIL_ResFileReader12getPixmapPtrERK7QString
41863138 T _ZNK18UTIL_ResFileReader12pixmapExistsERK7QString
41863fb0 T _ZNK18UTIL_ResFileReader13getByFileNameERK7QStringPPhPi
41863a08 T _ZNK18UTIL_ResFileReader15getDataAtOffsetEjPPhPi
41863d2c T _ZNK18UTIL_ResFileReader16getPixmapRawDataERK7QStringRiS3_S3_S3_S3_S3_
41863f14 T _ZNK18UTIL_ResFileReader17getByFullFileNameERK7QStringPPhPi
41863ae4 T _ZNK18UTIL_ResFileReader17getHashTableEntryERK7QString
41863cc8 T _ZNK18UTIL_ResFileReader3getERK7QStringPPhPi
418637a0 T _ZNK18UTIL_ResFileReader5getIDEj
41863c90 T _ZNK18UTIL_ResFileReader6existsERK7QString
41a7cdb8 W _ZNK18ZPopupLandscapeDlg10metaObjectEv
41a7cb64 T _ZNK18ZPopupLandscapeDlg9classNameEv
41a71f70 W _ZNK19UTIL_KeyboardFilter10metaObjectEv
41a71c40 T _ZNK19UTIL_KeyboardFilter9classNameEv
41a72768 W _ZNK19UTIL_SlaveKeyFilter10metaObjectEv
41a72514 T _ZNK19UTIL_SlaveKeyFilter9classNameEv
41a0c694 T _ZNK19ZHeaderStyleManager10getAreaIdxEN7ZHeader11HEADER_TYPEENS0_13HEADER_STATUSE
41a0c648 T _ZNK19ZHeaderStyleManager10getAreaNumEN7ZHeader11HEADER_TYPEE
41a0c720 T _ZNK19ZHeaderStyleManager10isLeftAreaEi
41a0c630 T _ZNK19ZHeaderStyleManager11getStyleNumEv
41a0c87c T _ZNK19ZHeaderStyleManager11isRightAreaEi
41a0c65c T _ZNK19ZHeaderStyleManager12getStatusNumEN7ZHeader11HEADER_TYPEEi
41a0c638 T _ZNK19ZHeaderStyleManager12getStyleTypeEi
41a0c730 T _ZNK19ZHeaderStyleManager16getAreaDefPixmapEN7ZHeader11HEADER_TYPEEi
41a0c674 T _ZNK19ZHeaderStyleManager9getStatusEN7ZHeader11HEADER_TYPEEii
41879f64 T _ZNK20AM_LauncherInterface16launchAppWithEnvERK5QUuidRK10QValueListI8QCStringE
41a700d8 T _ZNK20AM_LauncherInterface9classNameEv
41a7147c W _ZNK20UTIL_MorphingHandler10metaObjectEv
41a7118c T _ZNK20UTIL_MorphingHandler9classNameEv
4195869c T _ZNK20ZCanvasPolygonalItem12boundingRectEv
419586fc T _ZNK20ZCanvasPolygonalItem18areaPointsAdvancedEv
41a7d874 W _ZNK21ZOptionsLandscapeMenu10metaObjectEv
4194d914 T _ZNK21ZOptionsLandscapeMenu13isItemEnabledEi
41a7d588 T _ZNK21ZOptionsLandscapeMenu9classNameEv
419451e4 T _ZNK21ZPopupHeaderLandscape8getTitleEv
419cade4 T _ZNK21ZProgressSliderModule12getSpacingH1Ev
419cad94 T _ZNK21ZProgressSliderModule12getSpacingV1Ev
419cab6c T _ZNK21ZProgressSliderModule9getSliderEv
419465a4 T _ZNK22ZPopupContentLandscape14getContentTextEv
41a72a58 W _ZNK23UTIL_KeyboardLockServer10metaObjectEv
41a7276c T _ZNK23UTIL_KeyboardLockServer9classNameEv
41a73400 W _ZNK23UTIL_KeyTouchPanelEvent10metaObjectEv
41a73170 T _ZNK23UTIL_KeyTouchPanelEvent9classNameEv
41a7d428 W _ZNK23ZRevLandscapeMainWidget10metaObjectEv
41a7d1f4 T _ZNK23ZRevLandscapeMainWidget9classNameEv
41a7be44 W _ZNK24ZPopupLandscapeSelectDlg10metaObjectEv
41a7bae4 T _ZNK24ZPopupLandscapeSelectDlg9classNameEv
41a72510 W _ZNK25UTIL_UI_Sound_Player_Impl10metaObjectEv
41a72264 T _ZNK25UTIL_UI_Sound_Player_Impl9classNameEv
41a73404 W _ZNK26UTIL_KEY_TestCommandClient10metaObjectEv
41a7301c T _ZNK26UTIL_KEY_TestCommandClient9classNameEv
41a73408 W _ZNK26UTIL_KEY_TestCommandServer10metaObjectEv
41a72a5c T _ZNK26UTIL_KEY_TestCommandServer9classNameEv
         U _ZNK4QDir11absFilePathERK7QStringb
         U _ZNK4QDir13entryInfoListEii
         U _ZNK4QDir5mkdirERK7QStringb
         U _ZNK4QDir6existsEv
         U _ZNK4QDir7absPathEv
         U _ZNK4QDir9entryListEii
         U _ZNK4QPeneqERKS_
         U _ZNK5QChar16isLetterOrNumberEv
         U _ZNK5QChar5lowerEv
         U _ZNK5QChar5upperEv
         U _ZNK5QChar7isDigitEv
         U _ZNK5QChar7isPrintEv
         U _ZNK5QChar7isSpaceEv
         U _ZNK5QChar8categoryEv
         U _ZNK5QChar8isLetterEv
         U _ZNK5QDate11daysInMonthEv
         U _ZNK5QDate3dayEv
         U _ZNK5QDate4yearEv
         U _ZNK5QDate5monthEv
         U _ZNK5QDate6daysToERKS_
         U _ZNK5QDate7addDaysEi
         U _ZNK5QDate7dayNameEi
         U _ZNK5QDate7isValidEv
         U _ZNK5QDate9dayOfWeekEv
         U _ZNK5QFile5atEndEv
         U _ZNK5QFile6existsEv
         U _ZNK5QFile6handleEv
         U _ZNK5QFont9pointSizeEv
         U _ZNK5QFonteqERKS_
         U _ZNK5QFontneERKS_
419f1a98 W _ZNK5QListIN9ZWrapLine16ZWrapLineEditRowEE5countEv
         U _ZNK5QRect10intersectsERKS_
         U _ZNK5QRect5uniteERKS_
         U _ZNK5QRect6coordsEPiS0_S0_S0_
         U _ZNK5QRect8containsERK6QPointb
         U _ZNK5QRect8containsERKS_b
         U _ZNK5QRect9intersectERKS_
         U _ZNK5QRectanERKS_
         U _ZNK5QTime4hourEv
         U _ZNK5QTime6minuteEv
         U _ZNK5QTime6secondEv
         U _ZNK5QTime7isValidEv
         U _ZNK5QUuid6isNullEv
         U _ZNK5QUuid8toStringEv
418f1e88 T _ZNK5ZSkin10getQBitmapERK7QString
418f1be8 T _ZNK5ZSkin10getQPixmapERK7QString
418f1ef0 T _ZNK5ZSkin3getERK7QStringPPhPi
418f1d3c T _ZNK5ZSkin9getQImageERK7QString
418f1f9c T _ZNK5ZSkin9getQMovieERK7QString
         U _ZNK6QBrusheqERKS_
         U _ZNK6QColor4nameEv
         U _ZNK6QColor5lightEi
         U _ZNK6QFrame10sizePolicyEv
         U _ZNK6QGDict5writeER11QDataStreamPv
         U _ZNK6QGList11containsRefEPv
         U _ZNK6QGList5writeER11QDataStreamPv
         U _ZNK6QImage11smoothScaleEii
         U _ZNK6QImage12convertDepthEi
         U _ZNK6QImage15createAlphaMaskEi
         U _ZNK6QImage4copyEiiiii
         U _ZNK6QLabel5movieEv
         U _ZNK6QMovie10frameImageEv
         U _ZNK6QMovie11framePixmapEv
         U _ZNK6QMovie6isNullEv
         U _ZNK6QMovie6pausedEv
         U _ZNK6QMovie7runningEv
         U _ZNK6QMovie8finishedEv
419ee744 T _ZNK6ZImage13getFrameWidthERiS0_S0_S0_
419ee56c T _ZNK6ZImage5movieEv
419ef400 T _ZNK6ZImage8sizeHintEv
41a8ebd0 T _ZNK6ZImage9classNameEv
419f24b0 T _ZNK6ZLabel10getSpacingEv
419f2ac8 T _ZNK6ZLabel13getFrameWidthERiS0_S0_S0_
419f2800 T _ZNK6ZLabel13textDirectionEv
419f4158 T _ZNK6ZLabel14heightForWidthEi
419f5778 T _ZNK6ZLabel4textEv
419f2534 T _ZNK6ZLabel8getLineHEi
419f3d1c T _ZNK6ZLabel8sizeHintEv
41a8f278 T _ZNK6ZLabel9classNameEv
419bf0a8 T _ZNK6ZMeter10totalStepsEv
419bdae8 T _ZNK6ZMeter12getSpacingS1Ev
419bd9a4 T _ZNK6ZMeter12getSpacingS2Ev
419be0d0 T _ZNK6ZMeter13getIndicatorXEv
419be140 T _ZNK6ZMeter13getIndicatorYEv
419bdb88 T _ZNK6ZMeter16getIndicatorSizeEv
419bda3c T _ZNK6ZMeter18getIndicatorLengthEv
419beff8 T _ZNK6ZMeter6pausedEv
419bf0b4 T _ZNK6ZMeter8progressEv
419cb950 T _ZNK6ZPanel15minimumSizeHintEv
419cb93c T _ZNK6ZPanel8sizeHintEv
41a53618 T _ZNK6ZPopup16getInstructAlignEv
41a5360c T _ZNK6ZPopup19getInstructionLabelEv
41a51964 T _ZNK6ZPopup21getBodyAvailableWidthEv
41a53600 T _ZNK6ZPopup7getBodyEv
41a94e7c T _ZNK6ZPopup9classNameEv
         U _ZNK7QButton5groupEv
         U _ZNK7QDialog15minimumSizeHintEv
         U _ZNK7QDialog8sizeHintEv
         U _ZNK7QDialog9classNameEv
         U _ZNK7QGArray7bsearchEPKcj
         U _ZNK7QObject4nameEPKc
         U _ZNK7QObject4nameEv
         U _ZNK7QObject8inheritsEPKc
         U _ZNK7QObject9classNameEv
         U _ZNK7QObject9receiversEPKc
         U _ZNK7QPixmap12bytesPerLineEv
         U _ZNK7QPixmap14convertToImageEv
         U _ZNK7QPixmap15graphicsContextEb
         U _ZNK7QPixmap5xFormERK8QWMatrix
         U _ZNK7QPixmap6metricEi
         U _ZNK7QPixmap8scanLineEi
         U _ZNK7QRegExp5matchERK7QStringiPib
         U _ZNK7QRegion12boundingRectEv
         U _ZNK7QRegion5rectsEv
         U _ZNK7QRegion5uniteERKS_
         U _ZNK7QRegion7isEmptyEv
         U _ZNK7QRegion8containsERK5QRect
         U _ZNK7QRegion8subtractERKS_
         U _ZNK7QRegion9intersectERKS_
         U _ZNK7QRegionanERKS_
         U _ZNK7QRegionmiERKS_
         U _ZNK7QSocket14bytesAvailableEv
         U _ZNK7QSocket2atEv
         U _ZNK7QSocket4sizeEv
         U _ZNK7QSocket5atEndEv
         U _ZNK7QSocket5stateEv
         U _ZNK7QString10startsWithERKS_
         U _ZNK7QString15stripWhiteSpaceEv
         U _ZNK7QString3argElii
         U _ZNK7QString3argERKS_i
         U _ZNK7QString3midEjj
         U _ZNK7QString4findE5QCharib
         U _ZNK7QString4findERKS_ib
         U _ZNK7QString4leftEj
         U _ZNK7QString4utf8Ev
         U _ZNK7QString5asciiEv
         U _ZNK7QString5lowerEv
         U _ZNK7QString5rightEj
         U _ZNK7QString5toIntEPbi
         U _ZNK7QString5upperEv
         U _ZNK7QString6latin1Ev
         U _ZNK7QString6toLongEPbi
         U _ZNK7QString6toUIntEPbi
         U _ZNK7QString7compareERKS_
         U _ZNK7QString7findRevE5QCharib
         U _ZNK7QString7findRevERKS_ib
         U _ZNK7QString8containsE5QCharb
         U _ZNK7QString8containsEPKcb
         U _ZNK7QString8toDoubleEPb
         U _ZNK7QString8toUShortEPbi
         U _ZNK7QWidget10colorGroupEv
         U _ZNK7QWidget10focusProxyEv
         U _ZNK7QWidget10sizePolicyEv
         U _ZNK7QWidget11focusWidgetEv
         U _ZNK7QWidget11isVisibleToEPS_
         U _ZNK7QWidget11mapToGlobalERK6QPoint
         U _ZNK7QWidget11mapToParentERK6QPoint
         U _ZNK7QWidget11maximumSizeEv
         U _ZNK7QWidget11minimumSizeEv
         U _ZNK7QWidget11visibleRectEv
         U _ZNK7QWidget12bytesPerLineEv
         U _ZNK7QWidget12getMorphModeEv
         U _ZNK7QWidget13frameGeometryEv
         U _ZNK7QWidget13mapFromGlobalERK6QPoint
         U _ZNK7QWidget13mapFromParentERK6QPoint
         U _ZNK7QWidget14backgroundModeEv
         U _ZNK7QWidget14heightForWidthEi
         U _ZNK7QWidget14isActiveWindowEv
         U _ZNK7QWidget14isModalEditingEv
         U _ZNK7QWidget14topLevelWidgetEv
         U _ZNK7QWidget15customWhatsThisEv
         U _ZNK7QWidget15graphicsContextEb
         U _ZNK7QWidget15minimumSizeHintEv
         U _ZNK7QWidget16backgroundOriginEv
         U _ZNK7QWidget16backgroundPixmapEv
         U _ZNK7QWidget5mapToEPS_RK6QPoint
         U _ZNK7QWidget5styleEv
         U _ZNK7QWidget6metricEi
         U _ZNK7QWidget8autoMaskEv
         U _ZNK7QWidget8hasFocusEv
         U _ZNK7QWidget8scanLineEi
         U _ZNK7QWidget8sizeHintEv
         U _ZNK7QWidget9classNameEv
41a3d8d0 T _ZNK7ZButton10getBtnRectEv
41a3d45c T _ZNK7ZButton10getBtnSizeEv
41a3d78c T _ZNK7ZButton12getTitleRectEv
41a3d314 T _ZNK7ZButton12getTitleSizeEv
41a3da6c T _ZNK7ZButton17getBtnContentRectEv
41a3ce14 T _ZNK7ZButton4textEv
41a3d144 T _ZNK7ZButton6pixmapEv
41a3e7b4 T _ZNK7ZButton8sizeHintEv
4195ac0c T _ZNK7ZCanvas10collisionsERK11QPointArrayPK11ZCanvasItemb
41a7e1e0 T _ZNK7ZCanvas9classNameEv
41a9051c T _ZNK7ZHeader9classNameEv
418687d0 T _ZNK7ZRegExpeqERKS_
419c2864 T _ZNK7ZSlider12getSpacingS1Ev
419c3478 T _ZNK7ZSlider15minimumSizeHintEv
419c31a8 T _ZNK7ZSlider17valueFromPositionEi
419c31d8 T _ZNK7ZSlider5valueEv
419c31f0 T _ZNK7ZSlider8sizeHintEv
41a89a78 T _ZNK7ZSlider9classNameEv
41a18e04 T _ZNK7ZWidget17getCachedBgPixmapEv
4198c9d8 W _ZNK7ZWidget20getStepInScrollPanelEb
41a18c74 T _ZNK7ZWidget22autoAdjustWidthInPanelEv
41a19190 T _ZNK7ZWidget24getScreenLayoutDirectionEv
41a91e6c T _ZNK7ZWidget9classNameEv
41a923dc W _ZNK8EZXStyle10metaObjectEv
41a37f8c T _ZNK8EZXStyle13indicatorSizeEv
41a37f9c T _ZNK8EZXStyle22exclusiveIndicatorSizeEv
41a92188 T _ZNK8EZXStyle9classNameEv
         U _ZNK8QCString15stripWhiteSpaceEv
         U _ZNK8QCString3midEjj
         U _ZNK8QCString4findEcib
         U _ZNK8QCString4findEPKcib
         U _ZNK8QCString4leftEj
         U _ZNK8QCString5lowerEv
         U _ZNK8QCString5rightEj
         U _ZNK8QCString5toIntEPb
         U _ZNK8QGVector4findEPvj
         U _ZNK8QGVector5writeER11QDataStreamPv
         U _ZNK8QGVector7bsearchEPv
         U _ZNK8QIconSet6pixmapEv
         U _ZNK8QPainter11fontMetricsEv
         U _ZNK8QPainter11worldMatrixEv
         U _ZNK8QPainter5xFormERK5QRect
         U _ZNK8QPainter5xFormERK6QPoint
         U _ZNK8QPainter8xFormDevERK5QRect
419feec4 T _ZNK8ZFmwArea7getLastEv
419feeb4 T _ZNK8ZFmwArea8getFirstEv
419f8e94 T _ZNK8ZJumpBox13getFrameWidthERiS0_S0_S0_
419f8ee4 T _ZNK8ZJumpBox14getContentRectEv
419fb334 T _ZNK8ZJumpBox14getJumpBoxSizeERK5QSize
419fa364 T _ZNK8ZJumpBox16getIndicatorRectEv
419f9e48 T _ZNK8ZJumpBox17getLineEditHeightEv
41960084 T _ZNK8ZListBox10isSelectedEi
419600b8 T _ZNK8ZListBox10isSelectedEPK9ZListItem
41966f64 T _ZNK8ZListBox10itemHeightEi
4195f8c4 T _ZNK8ZListBox11currentItemEv
41962a78 T _ZNK8ZListBox11getItemFontENS_14ListItemRegionEb
41961284 T _ZNK8ZListBox11getItemSkinEN12ZSkinService11WidgetClsIDEN9ZSkinBase14SelectionStateE
41961750 T _ZNK8ZListBox13getZItemStyleEb
419620e4 T _ZNK8ZListBox14marqueeEnabledENS_14ListItemRegionE
41967ddc T _ZNK8ZListBox14maxmumSizeHintEv
4196222c T _ZNK8ZListBox15getListBoxSpaceEP9ZListItem
419601a4 T _ZNK8ZListBox15getMaxItemWidthEv
41967d00 T _ZNK8ZListBox15minimumSizeHintEv
41962334 T _ZNK8ZListBox16getSeparatorFontEv
41961620 T _ZNK8ZListBox16getSeparatorSkinEN12ZSkinService11WidgetClsIDE
41961784 T _ZNK8ZListBox17getSeparatorImageEi
419663c4 T _ZNK8ZListBox19getCurrentFocusRectEb
4196218c T _ZNK8ZListBox20hasNextPrevFocusItemEb
419638c4 T _ZNK8ZListBox23highlightCurItemNoFocusEv
4196207c T _ZNK8ZListBox29getDeleteItemCallBackFunctionEv
4195f6f0 T _ZNK8ZListBox4itemEi
419607fc T _ZNK8ZListBox5alignENS_9ITEMALIGNE
4195f660 T _ZNK8ZListBox5countEv
4195f6a8 T _ZNK8ZListBox5indexEPK9ZListItem
41966fe4 T _ZNK8ZListBox6itemAtE6QPoint
41966c60 T _ZNK8ZListBox7topItemEv
419623d4 T _ZNK8ZListBox8itemFontENS_14ListItemRegionEN9ZSkinBase14SelectionStateE
419661ec T _ZNK8ZListBox8itemRectEP9ZListItem
41967e88 T _ZNK8ZListBox8sizeHintEv
41a7e834 T _ZNK8ZListBox9classNameEv
419600e0 T _ZNK8ZListBox9firstItemEv
419a901c T _ZNK8ZSpinBox12getSpacingV1Ev
         U _ZNK9QBitArray7testBitEj
         U _ZNK9QFileInfo10isReadableEv
         U _ZNK9QFileInfo11absFilePathEv
         U _ZNK9QFileInfo4sizeEv
         U _ZNK9QFileInfo5isDirEv
         U _ZNK9QFileInfo6existsEv
         U _ZNK9QFileInfo6isFileEv
         U _ZNK9QFileInfo7dirPathEb
         U _ZNK9QFileInfo8baseNameEv
         U _ZNK9QFileInfo8fileNameEv
         U _ZNK9QFileInfo8filePathEv
         U _ZNK9QFileInfo9extensionEb
         U _ZNK9QGroupBox8sizeHintEv
         U _ZNK9QGroupBox9classNameEv
         U _ZNK9QWSSocket9classNameEv
4186520c T _ZNK9UTIL_Skin12getPixmapPtrERK7QString
418651b8 T _ZNK9UTIL_Skin12pixmapExistsERK7QString
4186537c T _ZNK9UTIL_Skin13getByFileNameERK7QStringPPhPi
4186531c T _ZNK9UTIL_Skin17getByFullFileNameERK7QStringPPhPi
418652bc T _ZNK9UTIL_Skin3getERK7QStringPPhPi
41865164 T _ZNK9UTIL_Skin6existsERK7QString
41865264 T _ZNK9UTIL_Skin9getPixmapERK7QString
419405d4 T _ZNK9ZCheckBox12getTitleRectEv
4194041c T _ZNK9ZCheckBox12getTitleSizeEv
419404b4 T _ZNK9ZCheckBox13getFrameWidthERiS0_S0_S0_
41940cb4 T _ZNK9ZCheckBox13getTextHeightEv
41940504 T _ZNK9ZCheckBox14getContentRectEv
419406b8 T _ZNK9ZCheckBox15getCheckBtnRectEv
4194082c T _ZNK9ZCheckBox6pixmapEv
419402dc T _ZNK9ZCheckBox9isCheckedEv
419502f0 T _ZNK9ZComboBox11currentItemEv
41951c44 T _ZNK9ZComboBox11currentTextEv
41951294 T _ZNK9ZComboBox11getItemTypeEP12ZListBoxItem
41953038 T _ZNK9ZComboBox13getFrameWidthERiS0_S0_S0_
41953014 T _ZNK9ZComboBox14getBtnHSpacingEv
41952dfc T _ZNK9ZComboBox14getContentRectEv
4195358c T _ZNK9ZComboBox14getCurrentFontER5QFontR6QColorN7ZButton8ItemTypeE
41953020 T _ZNK9ZComboBox15getTitleSpacingEN7ZButton13TitlePositionE
41952ee0 T _ZNK9ZComboBox16getBtnFrameWidthERiS0_S0_S0_
41952f30 T _ZNK9ZComboBox18getLabelFrameWidthERiS0_S0_S0_
419513f0 T _ZNK9ZComboBox4textEi
41950234 T _ZNK9ZComboBox5countEv
419504e8 T _ZNK9ZComboBox7listBoxEv
41a7d878 T _ZNK9ZComboBox9classNameEv
41a82524 T _ZNK9ZFormItem9classNameEv
41a3c2bc T _ZNK9ZGroupBox11checkedListEv
41a3ad34 T _ZNK9ZGroupBox5countEv
41a3c208 T _ZNK9ZGroupBox5getIdEP7ZWidget
41a3b0a8 T _ZNK9ZGroupBox5titleEv
41a3b9e8 T _ZNK9ZGroupBox8selectedEv
41a3ace0 T _ZNK9ZGroupBox8sizeHintEv
41a91870 T _ZNK9ZGroupBox9classNameEv
41a3c264 T _ZNK9ZGroupBox9getButtonEi
419dd958 T _ZNK9ZIconView10sizePolicyEv
419dc700 T _ZNK9ZIconView11currentItemEv
419dbc9c T _ZNK9ZIconView11getItemFontEN9ZSkinBase14SelectionStateE
419da2d0 T _ZNK9ZIconView11getItemSizeEv
419dec98 T _ZNK9ZIconView11itemCheckedEP13ZIconViewItem
419dda94 T _ZNK9ZIconView13getZItemStyleEv
419dcdd8 T _ZNK9ZIconView13sortDirectionEv
419dd948 T _ZNK9ZIconView15minimumSizeHintEv
419e361c T _ZNK9ZIconView20findFirstVisibleItemERK5QRect
419dbedc T _ZNK9ZIconView20getIconStretchPolicyEv
419e1efc T _ZNK9ZIconView29getDeleteItemCallBackFunctionEv
419dcf24 T _ZNK9ZIconView4itemEi
419dc6d8 T _ZNK9ZIconView5countEv
419db91c T _ZNK9ZIconView5indexEPK13ZIconViewItem
419dcdcc T _ZNK9ZIconView7sortingEv
419dc6f4 T _ZNK9ZIconView8lastItemEv
419dd77c T _ZNK9ZIconView8rowBeginEP13ZIconViewItem
419de7d4 T _ZNK9ZIconView8sizeHintEv
41a8c748 T _ZNK9ZIconView9classNameEv
419dc6e8 T _ZNK9ZIconView9firstItemEv
41a7d42c W _ZNK9ZInfoBarL10metaObjectEv
41a7cdbc T _ZNK9ZInfoBarL9classNameEv
419925a8 T _ZNK9ZLineEdit10isReadOnlyEv
419931dc T _ZNK9ZLineEdit10sizePolicyEv
41992a18 T _ZNK9ZLineEdit11phonenoTextEv
419940a0 T _ZNK9ZLineEdit12getFieldRectEv
41993fcc T _ZNK9ZLineEdit12getTitleRectEv
41993ef0 T _ZNK9ZLineEdit12getTitleSizeEv
419925b4 T _ZNK9ZLineEdit13getFrameWidthERiS0_S0_S0_
41992c50 T _ZNK9ZLineEdit14cursorPositionEv
419938a4 T _ZNK9ZLineEdit14getContentRectEv
41993c80 T _ZNK9ZLineEdit14getCurrentFontER5QFontR6QColorNS_8ItemTypeE
41993884 T _ZNK9ZLineEdit15echoModeNoFocusEv
41994210 T _ZNK9ZLineEdit15getEditAreaRectEv
41993824 T _ZNK9ZLineEdit15getPaddingWidthEv
41995260 T _ZNK9ZLineEdit15minimumSizeHintEv
4199386c T _ZNK9ZLineEdit16echoModeHasFocusEv
41993194 T _ZNK9ZLineEdit16getPaddingHeightEv
41993138 T _ZNK9ZLineEdit17getPreferredWidthEv
41993144 T _ZNK9ZLineEdit17getUnderlineWidthEv
41993184 T _ZNK9ZLineEdit18getAlterIconHeightEv
41993aa8 T _ZNK9ZLineEdit20getPredefinedNumbersEv
419926ec T _ZNK9ZLineEdit4textEv
41992d2c T _ZNK9ZLineEdit5frameEv
41993520 T _ZNK9ZLineEdit6editedEv
41993038 T _ZNK9ZLineEdit6frameWEv
419926b8 T _ZNK9ZLineEdit8echoModeEv
4199545c T _ZNK9ZLineEdit8sizeHintEv
41a847ac T _ZNK9ZLineEdit9classNameEv
41992bc0 T _ZNK9ZLineEdit9maxLengthEv
419926a8 T _ZNK9ZLineEdit9validatorEv
419734b0 T _ZNK9ZListItem11getItemTypeEv
41973b98 T _ZNK9ZListItem11getSortTextEv
41973b88 T _ZNK9ZListItem15isSeparatorItemEv
419734c8 T _ZNK9ZListItem17getMarkColumnTypeEv
41973b70 T _ZNK9ZListItem4nextEv
41972a7c T _ZNK9ZListItem7enabledEv
41973b54 T _ZNK9ZListItem7listBoxEv
41972e28 T _ZNK9ZListItem9getZStyleEv
4197373c T _ZNK9ZListItem9isCheckedEv
41a16db8 T _ZNK9ZSkinBase12getWallPaperER8QPainter
41a131d0 T _ZNK9ZSkinBase13getBorderTypeEv
41a14880 T _ZNK9ZSkinBase14getBorderWidthENS_10BorderSideE
41a14b98 T _ZNK9ZSkinBase14selectionStateEv
41a14c60 T _ZNK9ZSkinBase17getBackgroundTypeEv
41a134f8 T _ZNK9ZSkinBase17loadBorderPixmapsERNS_13BorderPixmapsE
41a1344c T _ZNK9ZSkinBase20getPixmapNameByStateEv
41a14abc T _ZNK9ZSkinBase7paddingEv
41a1326c T _ZNK9ZSkinBase8getPropsEv
41a8c0b8 W _ZNK9ZSoftKeyL10metaObjectEv
41a8bbf8 T _ZNK9ZSoftKeyL9classNameEv
419f04dc T _ZNK9ZWrapLine10wrapPolicyEv
419f04fc T _ZNK9ZWrapLine17wrapColumnOrWidthEv
419f18fc T _ZNK9ZWrapLine4drawEP8QPainteriiRK5QRect
419f0524 T _ZNK9ZWrapLine5widthEv
419f052c T _ZNK9ZWrapLine6heightEv
419f04ec T _ZNK9ZWrapLine8wordWrapEv
419f051c T _ZNK9ZWrapLine9alignmentEv
418e09fc T _Znwj
41868070 W _ZplRK7QStringPKc
418dd604 T _ZrsR11QDataStreamR11BMP_FILEHDR
418dd64c T _ZrsR11QDataStreamR11BMP_INFOHDR
         U _ZrsR11QDataStreamR11QStringList
4192b65c T _ZrsR11QDataStreamR11ZKB_Context
4193b0d0 T _ZrsR11QDataStreamR13AM_ActionData
418f20fc T _ZrsR11QDataStreamR14MISSED_EVENT_T
4192b520 T _ZrsR11QDataStreamR15ZKB_ShiftMode_T
418f213c T _ZrsR11QDataStreamR17MISSED_EVENT_ITEM
4192b438 T _ZrsR11QDataStreamR17ZKB_KPC_Request_T
4192b4f4 T _ZrsR11QDataStreamR18ZKB_Entry_Method_T
4192b564 T _ZrsR11QDataStreamR21ZKB_Predict_Request_T
         U _ZrsR11QDataStreamR5QUuid
         U _ZrsR11QDataStreamR6QArrayIcE
         U _ZrsR11QDataStreamR7QString
         U _ZrsR11QDataStreamR8QCString
4185bd70 T _ZrsR11QDataStreamR8TimeInfo
         U _ZrsR11QDataStreamR9QDateTime
4192b5a8 T _ZrsR11QDataStreamR9ZKB_Field
4192b464 T _ZrsR11QDataStreamRb
4192b4c8 T _ZrsR11QDataStreamRN13UTIL_Language10LanguageIdE
41a0ed90 W _ZThn172_N13ZKbMainWidgetD0Ev
41a0ed80 W _ZThn172_N13ZKbMainWidgetD1Ev
419c5730 W _ZThn236_N7ZSlider11rangeChangeEv
419c5728 W _ZThn236_N7ZSlider11valueChangeEv
41918aa8 W _ZThn36_N11ZInputField10setOptionsEil
419189a0 W _ZThn36_N11ZInputField12getFieldNameEv
41918990 W _ZThn36_N11ZInputField12setFieldNameEPKc
41918a78 W _ZThn36_N11ZInputField16getTextEntryModeEv
41918c10 W _ZThn36_N11ZInputField22setPreferredInputModesERK10QValueListI5QUuidERKS1_
419189b8 W _ZThn36_N11ZInputField7setTypeEi
41a0ed98 W _ZThn36_N13ZKbMainWidgetD0Ev
41a0ed88 W _ZThn36_N13ZKbMainWidgetD1Ev
         U _ZThn36_N7QSocket10writeBlockEPKcj
         U _ZThn36_N7QSocket2atEi
         U _ZThn36_N7QSocket4openEi
         U _ZThn36_N7QSocket5closeEv
         U _ZThn36_N7QSocket5flushEv
         U _ZThn36_N7QSocket5getchEv
         U _ZThn36_N7QSocket5putchEi
         U _ZThn36_N7QSocket7ungetchEi
         U _ZThn36_N7QSocket8readLineEPcj
         U _ZThn36_N7QSocket9readBlockEPcj
419189c0 W _ZThn36_NK11ZInputField10getOptionsEi
41918aa0 W _ZThn36_NK11ZInputField22getPreferredInputModesER10QValueListI5QUuidERS1_
419189b0 W _ZThn36_NK11ZInputField7getTypeEv
419189c8 W _ZThn36_NK11ZInputField8editTypeEv
         U _ZThn36_NK7QSocket2atEv
         U _ZThn36_NK7QSocket4sizeEv
         U _ZThn36_NK7QSocket5atEndEv
         U _ZThn36_NK7QWidget12bytesPerLineEv
         U _ZThn36_NK7QWidget15graphicsContextEb
         U _ZThn36_NK7QWidget6metricEi
         U _ZThn36_NK7QWidget8scanLineEi
41918a10 W _ZThn40_N11ZInputField10setReverseE6QPointib
41918a48 W _ZThn40_N11ZInputField11insertImageE6QPoint7QString
41918960 W _ZThn40_N11ZInputField11isUADEnableEv
41918a18 W _ZThn40_N11ZInputField12clearReverseEb
41918a30 W _ZThn40_N11ZInputField12deleteStringE6QPointib
41918980 W _ZThn40_N11ZInputField12getCapsStateEv
419189d8 W _ZThn40_N11ZInputField12getCursorPosEv
41918978 W _ZThn40_N11ZInputField12getDelimiterER7QString
41918998 W _ZThn40_N11ZInputField12getFieldNameEv
41918a88 W _ZThn40_N11ZInputField12hasValidatorEv
41918a38 W _ZThn40_N11ZInputField12insertStringE6QPoint7QStringb
41918a40 W _ZThn40_N11ZInputField12insertStringE6QPoint7QStringiiiibi
419189e8 W _ZThn40_N11ZInputField12setCursorPosE6QPointib
41918a20 W _ZThn40_N11ZInputField12setUnderlineE6QPointibb
41918a60 W _ZThn40_N11ZInputField13getCharBoundsE6QPoint
41918968 W _ZThn40_N11ZInputField13getSymbolListEb
419189f8 W _ZThn40_N11ZInputField13setCursorFlagEi
419189f0 W _ZThn40_N11ZInputField13setCursorTypeEi
41918a28 W _ZThn40_N11ZInputField14clearUnderlineEb
41918a58 W _ZThn40_N11ZInputField14getFieldBoundsEv
41918950 W _ZThn40_N11ZInputField14setDisplayAttrER6QPointii
41918970 W _ZThn40_N11ZInputField15canInsertStringERK7QString
41918a98 W _ZThn40_N11ZInputField15forceKeyReleaseEi
41918ab0 W _ZThn40_N11ZInputField15getEmoticonListER11QStringList
41918c08 W _ZThn40_N11ZInputField16filterStringListER11QStringList
41918988 W _ZThn40_N11ZInputField17getChunkDelimiterER7QString
41918a68 W _ZThn40_N11ZInputField18getUnderlineBoundsE6QPoint
41918958 W _ZThn40_N11ZInputField18isCompletionEnableEv
41918a90 W _ZThn40_N11ZInputField18sendConfirmMessageEv
41918a08 W _ZThn40_N11ZInputField18setCursorDirectionEi
41918a00 W _ZThn40_N11ZInputField21setInputModeDirectionEi
41918a50 W _ZThn40_N11ZInputField6formatE7QString
419189d0 W _ZThn40_N11ZInputField7getTextE6QPointb
419189e0 W _ZThn40_N11ZInputField7setTextE7QString
41918a70 W _ZThn40_N11ZInputField9maxLengthEv
41a5fe64 W _ZThn40_N16KbLineInputField12getCursorPosEv
41a5fedc W _ZThn40_N16KbLineInputField13getCharBoundsE6QPoint
41a5fed4 W _ZThn40_N16KbLineInputField14getFieldBoundsEv
41a5fee4 W _ZThn40_N16KbLineInputField18getUnderlineBoundsE6QPoint
41a5fe5c W _ZThn40_N16KbLineInputField7getTextE6QPointb
41915c20 W _ZThn40_N21KbMultiLineInputField12getCursorPosEv
41915c98 W _ZThn40_N21KbMultiLineInputField13getCharBoundsE6QPoint
41915c90 W _ZThn40_N21KbMultiLineInputField14getFieldBoundsEv
41915ca0 W _ZThn40_N21KbMultiLineInputField18getUnderlineBoundsE6QPoint
41915c18 W _ZThn40_N21KbMultiLineInputField7getTextE6QPointb
41918a80 W _ZThn40_NK11ZInputField18isRTLCharDirectionEv
419189a8 W _ZThn40_NK11ZInputField7getTypeEv
41ad1670 V _ZTV10KbAltItems
41ad20e0 V _ZTV10KbSyllable
41ac19f8 V _ZTV10QHideEvent
41ac3688 V _ZTV10ZHeaderCLI
41ac3650 V _ZTV10ZHeaderIDL
41ac3c60 V _ZTV10ZKeyObject
41ac8768 V _ZTV10ZNavTabBar
41ad0248 V _ZTV10ZNoticeDlg
41ac9cf0 V _ZTV10ZNumModule
41ac9ad8 V _ZTV10ZNumPicker
41ac1310 V _ZTV10ZResReader
41ac7b40 V _ZTV10ZScrollBar
41ac25b0 V _ZTV10ZSeparator
41ac30d0 V _ZTV10ZSplitPane
41ac4a08 V _ZTV10ZTableView
41ac9ef8 V _ZTV10ZWellArray
41ac0ee0 V _ZTV11AM_MimeType
41ac2548 V _ZTV11QMouseEvent
41ac22f0 V _ZTV11QObjectList
41ac14f0 V _ZTV11QPaintEvent
41ac1490 V _ZTV11QPointArray
41ac1358 V _ZTV11QSortedListI9ZResEntryE
41ace130 V _ZTV11ZBaseButton
41ac1cc0 V _ZTV11ZCanvasItem
41ac1f08 V _ZTV11ZCanvasLine
41ac1fe8 V _ZTV11ZCanvasText
41ac69a0 V _ZTV11ZCanvasView
41ac9498 V _ZTV11ZDateModule
41ac9290 V _ZTV11ZDatePicker
41ac2218 V _ZTV11ZDetailItem
41ac7448 V _ZTV11ZDetailView
41ac1740 V _ZTV11ZInputField
41acd708 V _ZTV11ZMainWidget
41acf6a0 V _ZTV11ZMessageDlg
41acb4a0 V _ZTV11ZSoftButton
41ac7900 V _ZTV11ZTextWidget
41ac98b8 V _ZTV11ZTimeModule
41ac96b0 V _ZTV11ZTimePicker
41ac4f68 V _ZTV12AM_Connector
41ad1410 V _ZTV12KbAltControl
41ac0c20 V _ZTV12QCustomEvent
41ac10a8 V _ZTV12QTextOStream
41accfd8 V _ZTV12ZAppInfoArea
41ac4540 V _ZTV12ZApplication
41aca350 V _ZTV12ZColorModule
41aca0f0 V _ZTV12ZColorPicker
41ace850 V _ZTV12ZDateControl
41ac2128 V _ZTV12ZListBoxItem
41ac78b0 V _ZTV12ZMarqueeText
41aca978 V _ZTV12ZMeterModule
41ad0428 V _ZTV12ZNoticeDelay
41acc378 V _ZTV12ZOptionsMenu
41acf270 V _ZTV12ZPopupHeader
41ac8048 V _ZTV12ZPressButton
41acfc88 V _ZTV12ZProgressDlg
41ac8288 V _ZTV12ZRadioButton
41ac7dd0 V _ZTV12ZScrollPanel
41ac34e0 V _ZTV12ZSettingItem
41acb6b0 V _ZTV12ZSoftButtonL
41ace5c0 V _ZTV12ZTimeControl
41ad1cd8 V _ZTV13KbMatrixItems
41ad13b8 V _ZTV13KbMenuControl
41ad0fb8 V _ZTV13KbModesDialog
41ac1560 V _ZTV13QCornerSquare
41ac3a68 V _ZTV13UTIL_DateTime
41ac3ab8 V _ZTV13UTIL_UILocker
41ac8e50 V _ZTV13ZCalendarGrid
41ac1d20 V _ZTV13ZCanvasPixmap
41ac1d50 V _ZTV13ZCanvasSprite
41aca568 V _ZTV13ZColorControl
41ac12c8 V _ZTV13ZDirectPixmap
41ac3388 V _ZTV13ZIconViewItem
41ac1928 V _ZTV13ZKbInputField
41acd4a0 V _ZTV13ZKbMainWidget
41ac89a8 V _ZTV13ZNavTabWidget
41ad09e8 V _ZTV13ZNumPickerDlg
41ac2e58 V _ZTV13ZSegmentField
41acadf8 V _ZTV13ZSliderModule
41ad0610 V _ZTV13ZSliderNotice
41ad18a8 V _ZTV14KbAltListItems
41ac3878 V _ZTV14KbUIController
41ac1210 V _ZTV14QImageConsumer
41ac41c0 V _ZTV14UTIL_GifPlayer
41ac0cd8 V _ZTV14UTIL_ResReader
41ac1f78 V _ZTV14ZCanvasEllipse
41ac1e98 V _ZTV14ZCanvasPolygon
41ac2350 V _ZTV14ZClipperWidget
41ac2a68 V _ZTV14ZCurrColorWell
41ad0058 V _ZTV14ZDatePickerDlg
41accba8 V _ZTV14ZExhibitButton
41acbdb8 V _ZTV14ZFiveWayButton
41ac71c8 V _ZTV14ZFormContainer
41ac1958 V _ZTV14ZIMTargetField
41ac3c18 V _ZTV14ZKeyObjectBase
41ac46f8 V _ZTV14ZMultiLineEdit
41acead8 V _ZTV14ZNumberControl
41ac1330 V _ZTV14ZResFileReader
41ad0bd8 V _ZTV14ZTimePickerDlg
41ac5058 V _ZTV15AM_ActionServer
41ac4e40 V _ZTV15IMPluginManager
41ac4f20 V _ZTV15KbPredictServer
41ac2058 V _ZTV15QPolygonScanner
41ac1430 V _ZTV15UTIL_DelTextCmd
41ac1450 V _ZTV15UTIL_EndCommand
41ac1470 V _ZTV15UTIL_InsTextCmd
41ac0c00 V _ZTV15UTIL_TAPI_Event
41ac37b0 V _ZTV15ZBaseButtonList
41ac9060 V _ZTV15ZCalendarModule
41ad07f8 V _ZTV15ZColorPickerDlg
41acc798 V _ZTV15ZImageContainer
41ac6fb8 V _ZTV15ZListBoxClipper
41acf890 V _ZTV15ZMultiSelectDlg
41ac8bc0 V _ZTV15ZNavWidgetStack
41ac5c68 V _ZTV15ZPopupLandscape
41acb020 V _ZTV15ZProgressSlider
41ac1a48 V _ZTV16IMPluginSwitcher
41ad0dc8 V _ZTV16KbLineInputField
41ac3988 V _ZTV16UTIL_TAPI_Device
41ace390 V _ZTV16ZBaseButtonGroup
41ac1e28 V _ZTV16ZCanvasRectangle
41acd1f8 V _ZTV16ZHeaderSysStatus
41acf068 V _ZTV16ZMediaController
41ac3438 V _ZTV16ZOptionsMenuItem
41ac1240 V _ZTV16ZReturnIdleEvent
41aced58 V _ZTV16ZSDMultiLineEdit
41acfa78 V _ZTV16ZSingleSelectDlg
41ac4fc0 V _ZTV17AM_ActionReceiver
41ac5008 V _ZTV17AM_ActionRegistry
41ac50a8 V _ZTV17AM_GlobalRunTimer
41ac0f68 V _ZTV17SETUP_SET_Manager
41ac13f0 V _ZTV17UTIL_BeginCommand
41ac3dc0 V _ZTV17UTIL_BTKeyHandler
41ac3e88 V _ZTV17UTIL_HardkeySound
41ac3ca8 V _ZTV17ZChannelKeyObject
41ac5428 V _ZTV17ZListBoxLandscape
41acfe68 V _ZTV17ZSingleCaptureDlg
41ac1aa0 V _ZTV18KbPredictEngineImp
41ad1198 V _ZTV18KbPredictionDialog
41ac4158 V _ZTV18UTIL_CommandClient
41ac4100 V _ZTV18UTIL_CommandServer
41ac3d78 V _ZTV18UTIL_KeypadHandler
41ac0c78 V _ZTV18UTIL_ResFileReader
41ac3618 V _ZTV18ZHeaderMainDisplay
41ac5e38 V _ZTV18ZPopupLandscapeDlg
41ac3920 V _ZTV19QTestCaptureHandler
41ac3e20 V _ZTV19UTIL_KeyboardFilter
41ac3f20 V _ZTV19UTIL_SlaveKeyFilter
41ac51b0 V _ZTV20AM_GlobalTimerServer
41ac3b00 V _ZTV20AM_LauncherInterface
41ac3b60 V _ZTV20AM_SystemStateClient
41ac4e98 V _ZTV20KbUIControlInterface
41ac3d00 V _ZTV20UTIL_MorphingHandler
41ac1db8 V _ZTV20ZCanvasPolygonalItem
41ac35e0 V _ZTV20ZHeaderDisplayWindow
41acbd58 V _ZTV20ZSoftKey_SignalState
41ac4c68 V _ZTV21KbMultiLineInputField
41ac2048 V _ZTV21ZCanvasPolygonScanner
41ac1410 V _ZTV21ZMultiLineEditCommand
41ac63f8 V _ZTV21ZOptionsLandscapeMenu
41ac5818 V _ZTV21ZPopupHeaderLandscape
41acb270 V _ZTV21ZProgressSliderModule
41ac5a20 V _ZTV22ZPopupContentLandscape
41ac5100 V _ZTV23AM_GlobalTimerContainer
41ac5160 V _ZTV23AM_GlobalTimerInterface
41ac3f88 V _ZTV23UTIL_KeyboardLockServer
41ac40b8 V _ZTV23UTIL_KeyTouchPanelEvent
41ac6228 V _ZTV23ZRevLandscapeMainWidget
41ac5638 V _ZTV24ZPopupLandscapeSelectDlg
41ac3ed8 V _ZTV25UTIL_UI_Sound_Player_Impl
41ac4068 V _ZTV26UTIL_KEY_TestCommandClient
41ac4010 V _ZTV26UTIL_KEY_TestCommandServer
41ac12f8 V _ZTV4ZMsg
         U _ZTV5QDate
41ac2158 V _ZTV5QListI10LBItemInfoE
41ac2a38 V _ZTV5QListI10ZWellArrayE
41ac3510 V _ZTV5QListI11SetItemInfoE
41ac2068 V _ZTV5QListI11ZCanvasItemE
41ac2098 V _ZTV5QListI11ZCanvasViewE
41ac21e8 V _ZTV5QListI11ZDetailItemE
41ac2558 V _ZTV5QListI11ZSPChildRecE
41ac2230 V _ZTV5QListI12ZDIPaintItemE
41ac2290 V _ZTV5QListI12ZDIPaintLineE
41ac20f8 V _ZTV5QListI12ZListBoxItemE
41ac3480 V _ZTV5QListI12ZOptionsMenuE
41ac32c8 V _ZTV5QListI12ZSoftKeyDataE
41ac2188 V _ZTV5QListI13LBSubItemInfoE
41ac22c0 V _ZTV5QListI13ZDIStructDataE
41ac33f0 V _ZTV5QListI13ZIconViewItemE
41ac3540 V _ZTV5QListI14SetSubItemInfoE
41ac2260 V _ZTV5QListI14ZDetailItemRowE
41ac37e0 V _ZTV5QListI15ZBaseButtonItemE
41ac3450 V _ZTV5QListI16ZOptionsMenuItemE
41ac1c30 V _ZTV5QListI17AM_GlobalRunTimerE
41ac1a18 V _ZTV5QListI19IInputMethodFactoryE
41ac1500 V _ZTV5QListI21ZMultiLineEditCommandE
41ac11e0 V _ZTV5QListI5QSizeE
41ac1180 V _ZTV5QListI6QPointE
41ac3080 V _ZTV5QListI6ZLabelE
41ac2320 V _ZTV5QListI7QObjectE
41ac1150 V _ZTV5QListI7QPixmapE
41ac27b8 V _ZTV5QListI7ZNavTabE
41ac3848 V _ZTV5QListI7ZWidgetE
41ac1c90 V _ZTV5QListI8MenuItemE
41ac1ae8 V _ZTV5QListI8QLibraryE
41ac35b0 V _ZTV5QListI8ZFmwAreaE
41ac3570 V _ZTV5QListI8ZFmwItemE
41ac29f8 V _ZTV5QListI8ZSpinBoxE
41ac0f10 V _ZTV5QListI9QFileInfoE
41ac3780 V _ZTV5QListI9ZCheckBoxE
41ac3050 V _ZTV5QListI9ZLineEditE
41ac20c8 V _ZTV5QListI9ZListItemE
41ac1388 V _ZTV5QListI9ZResEntryE
41ac11b0 V _ZTV5QListIiE
41ac1530 V _ZTV5QListIN14ZMultiLineEdit17ZMultiLineEditRowEE
41ac1278 V _ZTV5QListIN16ZApplicationData8MsgRec_TEE
41ac3818 V _ZTV5QListIN16ZSDMultiLineEdit13SDPOSTOOFFSETEE
41ac0e78 V _ZTV5QListIN20ZStructureDataParser13STRUCTUREDATAEE
41ac0ea8 V _ZTV5QListIN20ZStructureDataParser8TYPEINFOEE
41ac1c60 V _ZTV5QListIN23AM_GlobalTimerContainer10permitNodeEE
41ac34b0 V _ZTV5QListIN9ZWrapLine16ZWrapLineEditRowEE
41ac13b8 V _ZTV5ZSkin
41ac14d0 V _ZTV6QArrayI5QRectE
41ac14b0 V _ZTV6QArrayI6QPointE
41ac0c50 V _ZTV6QArrayIcE
41ac0d40 V _ZTV6QArrayIiE
41ac30b0 V _ZTV6QArrayIjE
41ac0e30 V _ZTV6QArrayIN13ZRegExpEngine17AnchorAlternationEE
41ac0db0 V _ZTV6QArrayIN13ZRegExpEngine4AtomEE
41ac0d60 V _ZTV6QArrayIN13ZRegExpEngine9CharClass5RangeEE
         U _ZTV6QEvent
         U _ZTV6QFrame
41ac32f8 V _ZTV6QStackI20ZSoftKey_SignalStateE
41ac2a28 V _ZTV6ZColor
41acc5a0 V _ZTV6ZImage
41acc9a0 V _ZTV6ZLabel
41aca770 V _ZTV6ZMeter
41ac2c60 V _ZTV6ZPanel
41acf4c0 V _ZTV6ZPopup
41ad1468 V _ZTV7KbAltUI
41ac0ca8 V _ZTV7QBitmap
41ac3358 V _ZTV7QVectorI7QPixmapE
41ac1048 V _ZTV7QVectorI7QStringE
41ac1078 V _ZTV7QVectorIN11SETUP_THEME5ThemeEE
41ac0d80 V _ZTV7QVectorIN13ZRegExpEngine5StateEE
41ac0dd0 V _ZTV7QVectorIN13ZRegExpEngine9CharClassEE
41ac0e00 V _ZTV7QVectorIN13ZRegExpEngine9LookaheadEE
41ac3328 V _ZTV7QVectorIS_I7QPixmapEE
41acde88 V _ZTV7ZButton
41ac68f0 V _ZTV7ZCanvas
41ac12a8 V _ZTV7ZConfig
41acd288 V _ZTV7ZHeader
41ac27a8 V _ZTV7ZNavTab
41acaba0 V _ZTV7ZSlider
41acdb58 V _ZTV7ZWidget
41acdd50 V _ZTV8EZXStyle
41ad1ed8 V _ZTV8KbMatrix
41ac0c30 V _ZTV8QCString
41ac3718 V _ZTV8QIntDictI12QSharePixmapE
41ac3740 V _ZTV8QIntDictI7QPixmapE
41ac0f40 V _ZTV8QIntDictI7QStringE
41ac2810 V _ZTV8QIntDictI7QWidgetE
41ac0e50 V _ZTV8QIntDictIiE
41ac2588 V _ZTV8QPtrDictI11ZSPChildRecE
41ac27e8 V _ZTV8QPtrDictI7QWidgetE
41ac1250 V _ZTV8QPtrDictIvE
41accdd0 V _ZTV8ZJumpBox
41ac6ca8 V _ZTV8ZListBox
41acb908 V _ZTV8ZSoftKey
41ac8db8 V _ZTV8ZSpinBox
41ad1aa8 V _ZTV9KbAltList
         U _ZTV9QGroupBox
41ac10c8 V _ZTV9QKeyEvent
41ac0c10 V _ZTV9TapiEvent
41ac0d08 V _ZTV9UTIL_Skin
41ac5200 V _ZTV9ZCheckBox
41ac6668 V _ZTV9ZComboBox
41ac76b0 V _ZTV9ZFormItem
41acd958 V _ZTV9ZGroupBox
41acc038 V _ZTV9ZIconView
41ac6030 V _ZTV9ZInfoBarL
41ac8540 V _ZTV9ZLineEdit
41ac21b8 V _ZTV9ZListItem
41ac3768 V _ZTV9ZSkinBase
41acbb40 V _ZTV9ZSoftKeyL
41ac0fd8 V _ZTVN11SETUP_THEME11ThemeVectorE
41ac1008 V _ZTVN11SETUP_THEME12StringVectorE
41ac3bb0 V _ZTVN11SETUP_THEME12ThemeManagerE
41ac10b8 V _ZTVN11SETUP_THEME16ThemeFileManagerE
41ac1038 V _ZTVN11SETUP_THEME17ThemeMediaCheckerE
41ac0fc8 V _ZTVN11SETUP_THEME5ThemeE
41ac2838 V _ZTVN22ZNavWidgetStackPrivate9InvisibleE
41ac1130 V _ZTVN9QWSServer14KeyboardFilterE
41ac1730 V _ZTVN9ZKbGlobal16ZKbModifiedEventE
41ac1720 V _ZTVN9ZKbGlobal18ZKbCursorMoveEventE
41ac1918 V _ZTVN9ZKbGlobal19ZKbTextConfirmEventE
41ac1a90 V _ZTVN9ZKbGlobal21ZKbStartEdittingEventE
41ac3908 V _ZTVN9ZKbGlobal23ZIMIndicatorChangeEventE
41ac1a08 V _ZTVN9ZKbGlobal25ZKbInputMethodFilterEventE
